;/////////////////////////////////////////////////////////////////////////////////
;// Code Generator: BoostC Compiler - http://www.sourceboost.com
;// Version       : 7.03
;// License Type  : Pro License
;// Limitations   : PIC12,PIC16 max code size:Unlimited, max RAM banks:Unlimited
;/////////////////////////////////////////////////////////////////////////////////

	ORG 0x00000000
0000  2C22  	GOTO	_startup
	ORG 0x00000004
0004  00FF  	MOVWF Int1Context
0005  0E03  	SWAPF STATUS, W
0006  1283  	BCF STATUS, RP0
0007  1303  	BCF STATUS, RP1
0008  00B4  	MOVWF Int1BContext
0009  0E0A  	SWAPF PCLATH, W
000A  00B5  	MOVWF Int1BContext+D'1'
000B  0E04  	SWAPF FSR, W
000C  00B6  	MOVWF Int1BContext+D'2'
000D  118A  	BCF PCLATH,3
000E  120A  	BCF PCLATH,4
000F  2C6D  	GOTO	interrupt
	ORG 0x00000010
0010        delay_us_00000
0010        ; { delay_us ; function begin
0010        label1
0010  0000  	NOP
0011  0000  	NOP
0012  0BE0  	DECFSZ delay_us_00000_arg_del, F
0013  2810  	GOTO	label1
0014  0008  	RETURN
0015        ; } delay_us function end

	ORG 0x00000015
0015        FCM_TIMEKE_0005A
0015        ; { FCM_TIMEKEEP ; function begin
0015  1283  	BCF STATUS, RP0
0016  1303  	BCF STATUS, RP1
0017  01E8  	CLRF CompTempVar2237
0018  1947  	BTFSC gbl_FCV_FLAG_BUZZ,2
0019  0AE8  	INCF CompTempVar2237, F
001A  01E7  	CLRF CompTempVar2236
001B  1DD3  	BTFSS gbl_FCV_BTN_BUZZER,3
001C  0AE7  	INCF CompTempVar2236, F
001D  0867  	MOVF CompTempVar2236, W
001E  0568  	ANDWF CompTempVar2237, W
001F  1903  	BTFSC STATUS,Z
0020  2847  	GOTO	label2
0021  307F  	MOVLW 0x7F
0022  1683  	BSF STATUS, RP0
0023  0506  	ANDWF gbl_trisb, W
0024  0086  	MOVWF gbl_trisb
0025  307F  	MOVLW 0x7F
0026  1283  	BCF STATUS, RP0
0027  0506  	ANDWF gbl_portb, W
0028  00EB  	MOVWF CompTempVar2240
0029  3080  	MOVLW 0x80
002A  046B  	IORWF CompTempVar2240, W
002B  0086  	MOVWF gbl_portb
002C  08BB  	MOVF gbl_FCV_BUZZER_CNT, F
002D  08BC  	MOVF gbl_FCV_BUZZER_CNT+D'1', F
002E  0ABB  	INCF gbl_FCV_BUZZER_CNT, F
002F  1903  	BTFSC STATUS,Z
0030  0ABC  	INCF gbl_FCV_BUZZER_CNT+D'1', F
0031  01EA  	CLRF CompTempVar2239
0032  0850  	MOVF gbl_FCV_GTIME_MIN, W
0033  3C00  	SUBLW 0x00
0034  1C03  	BTFSS STATUS,C
0035  0AEA  	INCF CompTempVar2239, F
0036  01E9  	CLRF CompTempVar2238
0037  084F  	MOVF gbl_FCV_GTIME_SEC, W
0038  3C00  	SUBLW 0x00
0039  1C03  	BTFSS STATUS,C
003A  0AE9  	INCF CompTempVar2238, F
003B  0869  	MOVF CompTempVar2238, W
003C  046A  	IORWF CompTempVar2239, W
003D  1903  	BTFSC STATUS,Z
003E  284F  	GOTO	label3
003F  083B  	MOVF gbl_FCV_BUZZER_CNT, W
0040  3A4C  	XORLW 0x4C
0041  300E  	MOVLW 0x0E
0042  1903  	BTFSC STATUS,Z
0043  063C  	XORWF gbl_FCV_BUZZER_CNT+D'1', W
0044  1903  	BTFSC STATUS,Z
0045  1147  	BCF gbl_FCV_FLAG_BUZZ,2
0046  284F  	GOTO	label3
0047        label2
0047  307F  	MOVLW 0x7F
0048  1683  	BSF STATUS, RP0
0049  0506  	ANDWF gbl_trisb, W
004A  0086  	MOVWF gbl_trisb
004B  307F  	MOVLW 0x7F
004C  1283  	BCF STATUS, RP0
004D  0506  	ANDWF gbl_portb, W
004E  0086  	MOVWF gbl_portb
004F        label3
004F  0358  	DECF gbl_FCV_FLAG_STARTSTOP, W
0050  1D03  	BTFSS STATUS,Z
0051  0008  	RETURN
0052  08B9  	MOVF gbl_FCV_TIME_CNT, F
0053  08BA  	MOVF gbl_FCV_TIME_CNT+D'1', F
0054  0AB9  	INCF gbl_FCV_TIME_CNT, F
0055  1903  	BTFSC STATUS,Z
0056  0ABA  	INCF gbl_FCV_TIME_CNT+D'1', F
0057  0839  	MOVF gbl_FCV_TIME_CNT, W
0058  3AC4  	XORLW 0xC4
0059  3004  	MOVLW 0x04
005A  1903  	BTFSC STATUS,Z
005B  063A  	XORWF gbl_FCV_TIME_CNT+D'1', W
005C  1D03  	BTFSS STATUS,Z
005D  0008  	RETURN
005E  034F  	DECF gbl_FCV_GTIME_SEC, W
005F  00CF  	MOVWF gbl_FCV_GTIME_SEC
0060  0357  	DECF gbl_FCV_SHOTCLOCK, W
0061  00D7  	MOVWF gbl_FCV_SHOTCLOCK
0062  0A57  	INCF gbl_FCV_SHOTCLOCK, W
0063  1D03  	BTFSS STATUS,Z
0064  2868  	GOTO	label4
0065  01D7  	CLRF gbl_FCV_SHOTCLOCK
0066  01D8  	CLRF gbl_FCV_FLAG_STARTSTOP
0067  1547  	BSF gbl_FCV_FLAG_BUZZ,2
0068        label4
0068  0A4F  	INCF gbl_FCV_GTIME_SEC, W
0069  1D03  	BTFSS STATUS,Z
006A  286F  	GOTO	label5
006B  303B  	MOVLW 0x3B
006C  00CF  	MOVWF gbl_FCV_GTIME_SEC
006D  0350  	DECF gbl_FCV_GTIME_MIN, W
006E  00D0  	MOVWF gbl_FCV_GTIME_MIN
006F        label5
006F  01B9  	CLRF gbl_FCV_TIME_CNT
0070  01BA  	CLRF gbl_FCV_TIME_CNT+D'1'
0071  0008  	RETURN
0072        ; } FCM_TIMEKEEP function end

	ORG 0x00000072
0072        FCM_clk_pu_00052
0072        ; { FCM_clk_pulse ; function begin
0072  30EF  	MOVLW 0xEF
0073  1683  	BSF STATUS, RP0
0074  1303  	BCF STATUS, RP1
0075  0505  	ANDWF gbl_trisa, W
0076  0085  	MOVWF gbl_trisa
0077  30EF  	MOVLW 0xEF
0078  1283  	BCF STATUS, RP0
0079  0505  	ANDWF gbl_porta, W
007A  00E4  	MOVWF CompTempVar2188
007B  3010  	MOVLW 0x10
007C  0464  	IORWF CompTempVar2188, W
007D  0085  	MOVWF gbl_porta
007E  30EF  	MOVLW 0xEF
007F  1683  	BSF STATUS, RP0
0080  0505  	ANDWF gbl_trisa, W
0081  0085  	MOVWF gbl_trisa
0082  30EF  	MOVLW 0xEF
0083  1283  	BCF STATUS, RP0
0084  0505  	ANDWF gbl_porta, W
0085  0085  	MOVWF gbl_porta
0086  0008  	RETURN
0087        ; } FCM_clk_pulse function end

	ORG 0x00000087
0087        FCM_SevenS_00051
0087        ; { FCM_SevenSegment ; function begin
0087  1283  	BCF STATUS, RP0
0088  1303  	BCF STATUS, RP1
0089  0851  	MOVF gbl_FCV_DISPLAY_SEVENSEG, W
008A  3A01  	XORLW 0x01
008B  1903  	BTFSC STATUS,Z
008C  28A9  	GOTO	label6
008D  3A03  	XORLW 0x03
008E  1903  	BTFSC STATUS,Z
008F  28AF  	GOTO	label7
0090  3A01  	XORLW 0x01
0091  1903  	BTFSC STATUS,Z
0092  28B5  	GOTO	label8
0093  3A07  	XORLW 0x07
0094  1903  	BTFSC STATUS,Z
0095  28BB  	GOTO	label9
0096  3A01  	XORLW 0x01
0097  1903  	BTFSC STATUS,Z
0098  28C1  	GOTO	label10
0099  3A03  	XORLW 0x03
009A  1903  	BTFSC STATUS,Z
009B  28C7  	GOTO	label11
009C  3A01  	XORLW 0x01
009D  1903  	BTFSC STATUS,Z
009E  28CD  	GOTO	label12
009F  3A0F  	XORLW 0x0F
00A0  1903  	BTFSC STATUS,Z
00A1  28D3  	GOTO	label13
00A2  3A01  	XORLW 0x01
00A3  1903  	BTFSC STATUS,Z
00A4  28D9  	GOTO	label14
00A5  3A09  	XORLW 0x09
00A6  1903  	BTFSC STATUS,Z
00A7  28DF  	GOTO	label15
00A8  28E5  	GOTO	label16
00A9        label6
00A9  1683  	BSF STATUS, RP0
00AA  0186  	CLRF gbl_trisb
00AB  3006  	MOVLW 0x06
00AC  1283  	BCF STATUS, RP0
00AD  0086  	MOVWF gbl_portb
00AE  0008  	RETURN
00AF        label7
00AF  1683  	BSF STATUS, RP0
00B0  0186  	CLRF gbl_trisb
00B1  305B  	MOVLW 0x5B
00B2  1283  	BCF STATUS, RP0
00B3  0086  	MOVWF gbl_portb
00B4  0008  	RETURN
00B5        label8
00B5  1683  	BSF STATUS, RP0
00B6  0186  	CLRF gbl_trisb
00B7  304F  	MOVLW 0x4F
00B8  1283  	BCF STATUS, RP0
00B9  0086  	MOVWF gbl_portb
00BA  0008  	RETURN
00BB        label9
00BB  1683  	BSF STATUS, RP0
00BC  0186  	CLRF gbl_trisb
00BD  3066  	MOVLW 0x66
00BE  1283  	BCF STATUS, RP0
00BF  0086  	MOVWF gbl_portb
00C0  0008  	RETURN
00C1        label10
00C1  1683  	BSF STATUS, RP0
00C2  0186  	CLRF gbl_trisb
00C3  306D  	MOVLW 0x6D
00C4  1283  	BCF STATUS, RP0
00C5  0086  	MOVWF gbl_portb
00C6  0008  	RETURN
00C7        label11
00C7  1683  	BSF STATUS, RP0
00C8  0186  	CLRF gbl_trisb
00C9  307D  	MOVLW 0x7D
00CA  1283  	BCF STATUS, RP0
00CB  0086  	MOVWF gbl_portb
00CC  0008  	RETURN
00CD        label12
00CD  1683  	BSF STATUS, RP0
00CE  0186  	CLRF gbl_trisb
00CF  3007  	MOVLW 0x07
00D0  1283  	BCF STATUS, RP0
00D1  0086  	MOVWF gbl_portb
00D2  0008  	RETURN
00D3        label13
00D3  1683  	BSF STATUS, RP0
00D4  0186  	CLRF gbl_trisb
00D5  307F  	MOVLW 0x7F
00D6  1283  	BCF STATUS, RP0
00D7  0086  	MOVWF gbl_portb
00D8  0008  	RETURN
00D9        label14
00D9  1683  	BSF STATUS, RP0
00DA  0186  	CLRF gbl_trisb
00DB  306F  	MOVLW 0x6F
00DC  1283  	BCF STATUS, RP0
00DD  0086  	MOVWF gbl_portb
00DE  0008  	RETURN
00DF        label15
00DF  1683  	BSF STATUS, RP0
00E0  0186  	CLRF gbl_trisb
00E1  303F  	MOVLW 0x3F
00E2  1283  	BCF STATUS, RP0
00E3  0086  	MOVWF gbl_portb
00E4  0008  	RETURN
00E5        label16
00E5  0851  	MOVF gbl_FCV_DISPLAY_SEVENSEG, W
00E6  3A0A  	XORLW 0x0A
00E7  1903  	BTFSC STATUS,Z
00E8  28ED  	GOTO	label17
00E9  3AF5  	XORLW 0xF5
00EA  1903  	BTFSC STATUS,Z
00EB  28F3  	GOTO	label18
00EC  0008  	RETURN
00ED        label17
00ED  1683  	BSF STATUS, RP0
00EE  0186  	CLRF gbl_trisb
00EF  3073  	MOVLW 0x73
00F0  1283  	BCF STATUS, RP0
00F1  0086  	MOVWF gbl_portb
00F2  0008  	RETURN
00F3        label18
00F3  1683  	BSF STATUS, RP0
00F4  0186  	CLRF gbl_trisb
00F5  1283  	BCF STATUS, RP0
00F6  0186  	CLRF gbl_portb
00F7  0008  	RETURN
00F8        ; } FCM_SevenSegment function end

	ORG 0x000000F8
00F8        FCM_Scan_00000
00F8        ; { FCM_Scan ; function begin
00F8  1283  	BCF STATUS, RP0
00F9  1303  	BCF STATUS, RP1
00FA  01DA  	CLRF gbl_FCLV_LOOP1
00FB        label19
00FB  3008  	MOVLW 0x08
00FC  025A  	SUBWF gbl_FCLV_LOOP1, W
00FD  1803  	BTFSC STATUS,C
00FE  2921  	GOTO	label22
00FF  3001  	MOVLW 0x01
0100  054A  	ANDWF gbl_FCV_SCAN1, W
0101  00E4  	MOVWF CompTempVar2189
0102  01E5  	CLRF CompTempVar2190
0103  08E4  	MOVF CompTempVar2189, F
0104  1D03  	BTFSS STATUS,Z
0105  1465  	BSF CompTempVar2190,0
0106  11C7  	BCF gbl_FCV_DAT,3
0107  0865  	MOVF CompTempVar2190, W
0108  1D03  	BTFSS STATUS,Z
0109  15C7  	BSF gbl_FCV_DAT,3
010A  30F7  	MOVLW 0xF7
010B  1683  	BSF STATUS, RP0
010C  0505  	ANDWF gbl_trisa, W
010D  0085  	MOVWF gbl_trisa
010E  1283  	BCF STATUS, RP0
010F  1DC7  	BTFSS gbl_FCV_DAT,3
0110  2918  	GOTO	label20
0111  30F7  	MOVLW 0xF7
0112  0505  	ANDWF gbl_porta, W
0113  00E4  	MOVWF CompTempVar2191
0114  3008  	MOVLW 0x08
0115  0464  	IORWF CompTempVar2191, W
0116  0085  	MOVWF gbl_porta
0117  291B  	GOTO	label21
0118        label20
0118  30F7  	MOVLW 0xF7
0119  0505  	ANDWF gbl_porta, W
011A  0085  	MOVWF gbl_porta
011B        label21
011B  2072  	CALL FCM_clk_pu_00052
011C  08CA  	MOVF gbl_FCV_SCAN1, F
011D  1003  	BCF STATUS,C
011E  0CCA  	RRF gbl_FCV_SCAN1, F
011F  0ADA  	INCF gbl_FCLV_LOOP1, F
0120  28FB  	GOTO	label19
0121        label22
0121  01DB  	CLRF gbl_FCLV_LOOP2
0122        label23
0122  3008  	MOVLW 0x08
0123  025B  	SUBWF gbl_FCLV_LOOP2, W
0124  1803  	BTFSC STATUS,C
0125  0008  	RETURN
0126  3001  	MOVLW 0x01
0127  054B  	ANDWF gbl_FCV_SCAN2, W
0128  00E4  	MOVWF CompTempVar2193
0129  01E5  	CLRF CompTempVar2194
012A  08E4  	MOVF CompTempVar2193, F
012B  1D03  	BTFSS STATUS,Z
012C  1465  	BSF CompTempVar2194,0
012D  11C7  	BCF gbl_FCV_DAT,3
012E  0865  	MOVF CompTempVar2194, W
012F  1D03  	BTFSS STATUS,Z
0130  15C7  	BSF gbl_FCV_DAT,3
0131  30F7  	MOVLW 0xF7
0132  1683  	BSF STATUS, RP0
0133  0505  	ANDWF gbl_trisa, W
0134  0085  	MOVWF gbl_trisa
0135  1283  	BCF STATUS, RP0
0136  1DC7  	BTFSS gbl_FCV_DAT,3
0137  293F  	GOTO	label24
0138  30F7  	MOVLW 0xF7
0139  0505  	ANDWF gbl_porta, W
013A  00E4  	MOVWF CompTempVar2195
013B  3008  	MOVLW 0x08
013C  0464  	IORWF CompTempVar2195, W
013D  0085  	MOVWF gbl_porta
013E  2942  	GOTO	label25
013F        label24
013F  30F7  	MOVLW 0xF7
0140  0505  	ANDWF gbl_porta, W
0141  0085  	MOVWF gbl_porta
0142        label25
0142  2072  	CALL FCM_clk_pu_00052
0143  08CB  	MOVF gbl_FCV_SCAN2, F
0144  1003  	BCF STATUS,C
0145  0CCB  	RRF gbl_FCV_SCAN2, F
0146  0ADB  	INCF gbl_FCLV_LOOP2, F
0147  2922  	GOTO	label23
0148        ; } FCM_Scan function end

	ORG 0x00000148
0148        FCM_btn_sc_00057
0148        ; { FCM_btn_scan3 ; function begin
0148  30FF  	MOVLW 0xFF
0149  1283  	BCF STATUS, RP0
014A  1303  	BCF STATUS, RP1
014B  00D1  	MOVWF gbl_FCV_DISPLAY_SEVENSEG
014C  2087  	CALL FCM_SevenS_00051
014D  3010  	MOVLW 0x10
014E  00CA  	MOVWF gbl_FCV_SCAN1
014F  01CB  	CLRF gbl_FCV_SCAN2
0150  20F8  	CALL FCM_Scan_00000
0151  3001  	MOVLW 0x01
0152  1683  	BSF STATUS, RP0
0153  0405  	IORWF gbl_trisa, W
0154  0085  	MOVWF gbl_trisa
0155  3001  	MOVLW 0x01
0156  1283  	BCF STATUS, RP0
0157  0505  	ANDWF gbl_porta, W
0158  00E4  	MOVWF CompTempVar2221
0159  01E5  	CLRF CompTempVar2222
015A  0364  	DECF CompTempVar2221, W
015B  1903  	BTFSC STATUS,Z
015C  0AE5  	INCF CompTempVar2222, F
015D  1347  	BCF gbl_FCV_SWITCH4,6
015E  0865  	MOVF CompTempVar2222, W
015F  1D03  	BTFSS STATUS,Z
0160  1747  	BSF gbl_FCV_SWITCH4,6
0161  3002  	MOVLW 0x02
0162  1683  	BSF STATUS, RP0
0163  0405  	IORWF gbl_trisa, W
0164  0085  	MOVWF gbl_trisa
0165  3002  	MOVLW 0x02
0166  1283  	BCF STATUS, RP0
0167  0505  	ANDWF gbl_porta, W
0168  00E4  	MOVWF CompTempVar2223
0169  01E5  	CLRF CompTempVar2224
016A  3002  	MOVLW 0x02
016B  0264  	SUBWF CompTempVar2223, W
016C  1903  	BTFSC STATUS,Z
016D  0AE5  	INCF CompTempVar2224, F
016E  1053  	BCF gbl_FCV_SWITCH5,0
016F  0865  	MOVF CompTempVar2224, W
0170  1D03  	BTFSS STATUS,Z
0171  1453  	BSF gbl_FCV_SWITCH5,0
0172  01E1  	CLRF CompTempVar2218
0173  18D3  	BTFSC gbl_FCV_TOG_HOME,1
0174  0AE1  	INCF CompTempVar2218, F
0175  01E0  	CLRF CompTempVar2217
0176  0348  	DECF gbl_FCV_TOG_SHOTCLOCK, W
0177  1903  	BTFSC STATUS,Z
0178  0AE0  	INCF CompTempVar2217, F
0179  0860  	MOVF CompTempVar2217, W
017A  0461  	IORWF CompTempVar2218, W
017B  1903  	BTFSC STATUS,Z
017C  2989  	GOTO	label26
017D  01E5  	CLRF CompTempVar2226
017E  1B47  	BTFSC gbl_FCV_SWITCH4,6
017F  0AE5  	INCF CompTempVar2226, F
0180  01E4  	CLRF CompTempVar2225
0181  1853  	BTFSC gbl_FCV_SWITCH5,0
0182  0AE4  	INCF CompTempVar2225, F
0183  0864  	MOVF CompTempVar2225, W
0184  0565  	ANDWF CompTempVar2226, W
0185  1903  	BTFSC STATUS,Z
0186  2989  	GOTO	label26
0187  0349  	DECF gbl_FCV_COUNTER3, W
0188  00C9  	MOVWF gbl_FCV_COUNTER3
0189        label26
0189  01E3  	CLRF CompTempVar2220
018A  1F47  	BTFSS gbl_FCV_SWITCH4,6
018B  0AE3  	INCF CompTempVar2220, F
018C  01E2  	CLRF CompTempVar2219
018D  1CD3  	BTFSS gbl_FCV_TOG_HOME,1
018E  0AE2  	INCF CompTempVar2219, F
018F  0862  	MOVF CompTempVar2219, W
0190  0563  	ANDWF CompTempVar2220, W
0191  1903  	BTFSC STATUS,Z
0192  2996  	GOTO	label27
0193  14C7  	BSF gbl_FCV_BTN_HOME,1
0194  14D3  	BSF gbl_FCV_TOG_HOME,1
0195  29A3  	GOTO	label28
0196        label27
0196  10C7  	BCF gbl_FCV_BTN_HOME,1
0197  01E5  	CLRF CompTempVar2228
0198  0AE5  	INCF CompTempVar2228, F
0199  08C9  	MOVF gbl_FCV_COUNTER3, F
019A  1D03  	BTFSS STATUS,Z
019B  1065  	BCF CompTempVar2228,0
019C  01E4  	CLRF CompTempVar2227
019D  18D3  	BTFSC gbl_FCV_TOG_HOME,1
019E  0AE4  	INCF CompTempVar2227, F
019F  0864  	MOVF CompTempVar2227, W
01A0  0565  	ANDWF CompTempVar2228, W
01A1  1D03  	BTFSS STATUS,Z
01A2  10D3  	BCF gbl_FCV_TOG_HOME,1
01A3        label28
01A3  1853  	BTFSC gbl_FCV_SWITCH5,0
01A4  29A9  	GOTO	label29
01A5  1647  	BSF gbl_FCV_BTN_SHOTCLOCK,4
01A6  3001  	MOVLW 0x01
01A7  00C8  	MOVWF gbl_FCV_TOG_SHOTCLOCK
01A8  29B7  	GOTO	label30
01A9        label29
01A9  1247  	BCF gbl_FCV_BTN_SHOTCLOCK,4
01AA  01E5  	CLRF CompTempVar2230
01AB  0AE5  	INCF CompTempVar2230, F
01AC  08C9  	MOVF gbl_FCV_COUNTER3, F
01AD  1D03  	BTFSS STATUS,Z
01AE  1065  	BCF CompTempVar2230,0
01AF  01E4  	CLRF CompTempVar2229
01B0  0348  	DECF gbl_FCV_TOG_SHOTCLOCK, W
01B1  1903  	BTFSC STATUS,Z
01B2  0AE4  	INCF CompTempVar2229, F
01B3  0864  	MOVF CompTempVar2229, W
01B4  0565  	ANDWF CompTempVar2230, W
01B5  1D03  	BTFSS STATUS,Z
01B6  01C8  	CLRF gbl_FCV_TOG_SHOTCLOCK
01B7        label30
01B7  08C9  	MOVF gbl_FCV_COUNTER3, F
01B8  1D03  	BTFSS STATUS,Z
01B9  0008  	RETURN
01BA  3014  	MOVLW 0x14
01BB  00C9  	MOVWF gbl_FCV_COUNTER3
01BC  0008  	RETURN
01BD        ; } FCM_btn_scan3 function end

	ORG 0x000001BD
01BD        FCM_btn_sc_00056
01BD        ; { FCM_btn_scan2 ; function begin
01BD  30FF  	MOVLW 0xFF
01BE  1283  	BCF STATUS, RP0
01BF  1303  	BCF STATUS, RP1
01C0  00D1  	MOVWF gbl_FCV_DISPLAY_SEVENSEG
01C1  2087  	CALL FCM_SevenS_00051
01C2  3008  	MOVLW 0x08
01C3  00CA  	MOVWF gbl_FCV_SCAN1
01C4  01CB  	CLRF gbl_FCV_SCAN2
01C5  20F8  	CALL FCM_Scan_00000
01C6  3001  	MOVLW 0x01
01C7  1683  	BSF STATUS, RP0
01C8  0405  	IORWF gbl_trisa, W
01C9  0085  	MOVWF gbl_trisa
01CA  3001  	MOVLW 0x01
01CB  1283  	BCF STATUS, RP0
01CC  0505  	ANDWF gbl_porta, W
01CD  00E2  	MOVWF CompTempVar2209
01CE  01E3  	CLRF CompTempVar2210
01CF  0362  	DECF CompTempVar2209, W
01D0  1903  	BTFSC STATUS,Z
01D1  0AE3  	INCF CompTempVar2210, F
01D2  1347  	BCF gbl_FCV_SWITCH4,6
01D3  0863  	MOVF CompTempVar2210, W
01D4  1D03  	BTFSS STATUS,Z
01D5  1747  	BSF gbl_FCV_SWITCH4,6
01D6  3002  	MOVLW 0x02
01D7  1683  	BSF STATUS, RP0
01D8  0405  	IORWF gbl_trisa, W
01D9  0085  	MOVWF gbl_trisa
01DA  3002  	MOVLW 0x02
01DB  1283  	BCF STATUS, RP0
01DC  0505  	ANDWF gbl_porta, W
01DD  00E2  	MOVWF CompTempVar2211
01DE  01E3  	CLRF CompTempVar2212
01DF  3002  	MOVLW 0x02
01E0  0262  	SUBWF CompTempVar2211, W
01E1  1903  	BTFSC STATUS,Z
01E2  0AE3  	INCF CompTempVar2212, F
01E3  1053  	BCF gbl_FCV_SWITCH5,0
01E4  0863  	MOVF CompTempVar2212, W
01E5  1D03  	BTFSS STATUS,Z
01E6  1453  	BSF gbl_FCV_SWITCH5,0
01E7  0348  	DECF gbl_FCV_TOG_SHOTCLOCK, W
01E8  1D03  	BTFSS STATUS,Z
01E9  29F7  	GOTO	label32
01EA  01E3  	CLRF CompTempVar2214
01EB  1F47  	BTFSS gbl_FCV_SWITCH4,6
01EC  29EE  	GOTO	label31
01ED  0AE3  	INCF CompTempVar2214, F
01EE        label31
01EE  01E2  	CLRF CompTempVar2213
01EF  1853  	BTFSC gbl_FCV_SWITCH5,0
01F0  0AE2  	INCF CompTempVar2213, F
01F1  0862  	MOVF CompTempVar2213, W
01F2  0563  	ANDWF CompTempVar2214, W
01F3  1903  	BTFSC STATUS,Z
01F4  29F7  	GOTO	label32
01F5  0346  	DECF gbl_FCV_COUNTER2, W
01F6  00C6  	MOVWF gbl_FCV_COUNTER2
01F7        label32
01F7  01E1  	CLRF CompTempVar2208
01F8  1F47  	BTFSS gbl_FCV_SWITCH4,6
01F9  0AE1  	INCF CompTempVar2208, F
01FA  01E0  	CLRF CompTempVar2207
01FB  0AE0  	INCF CompTempVar2207, F
01FC  08C8  	MOVF gbl_FCV_TOG_SHOTCLOCK, F
01FD  1D03  	BTFSS STATUS,Z
01FE  1060  	BCF CompTempVar2207,0
01FF  0860  	MOVF CompTempVar2207, W
0200  0561  	ANDWF CompTempVar2208, W
0201  1903  	BTFSC STATUS,Z
0202  2A10  	GOTO	label34
0203  17C7  	BSF gbl_FCV_BTN_STARTSTOP,7
0204  3001  	MOVLW 0x01
0205  00C8  	MOVWF gbl_FCV_TOG_SHOTCLOCK
0206  08D8  	MOVF gbl_FCV_FLAG_STARTSTOP, F
0207  1D03  	BTFSS STATUS,Z
0208  2A0C  	GOTO	label33
0209  3001  	MOVLW 0x01
020A  00D8  	MOVWF gbl_FCV_FLAG_STARTSTOP
020B  2A1E  	GOTO	label35
020C        label33
020C  0358  	DECF gbl_FCV_FLAG_STARTSTOP, W
020D  1903  	BTFSC STATUS,Z
020E  01D8  	CLRF gbl_FCV_FLAG_STARTSTOP
020F  2A1E  	GOTO	label35
0210        label34
0210  13C7  	BCF gbl_FCV_BTN_STARTSTOP,7
0211  01E3  	CLRF CompTempVar2216
0212  0AE3  	INCF CompTempVar2216, F
0213  08C6  	MOVF gbl_FCV_COUNTER2, F
0214  1D03  	BTFSS STATUS,Z
0215  1063  	BCF CompTempVar2216,0
0216  01E2  	CLRF CompTempVar2215
0217  0348  	DECF gbl_FCV_TOG_SHOTCLOCK, W
0218  1903  	BTFSC STATUS,Z
0219  0AE2  	INCF CompTempVar2215, F
021A  0862  	MOVF CompTempVar2215, W
021B  0563  	ANDWF CompTempVar2216, W
021C  1D03  	BTFSS STATUS,Z
021D  01C8  	CLRF gbl_FCV_TOG_SHOTCLOCK
021E        label35
021E  1853  	BTFSC gbl_FCV_SWITCH5,0
021F  2A22  	GOTO	label36
0220  1447  	BSF gbl_FCV_BTN_SHIFT,0
0221  2A23  	GOTO	label37
0222        label36
0222  1047  	BCF gbl_FCV_BTN_SHIFT,0
0223        label37
0223  08C6  	MOVF gbl_FCV_COUNTER2, F
0224  1D03  	BTFSS STATUS,Z
0225  0008  	RETURN
0226  3032  	MOVLW 0x32
0227  00C6  	MOVWF gbl_FCV_COUNTER2
0228  0008  	RETURN
0229        ; } FCM_btn_scan2 function end

	ORG 0x00000229
0229        FCM_btn_sc_00055
0229        ; { FCM_btn_scan1 ; function begin
0229  30FF  	MOVLW 0xFF
022A  1283  	BCF STATUS, RP0
022B  1303  	BCF STATUS, RP1
022C  00D1  	MOVWF gbl_FCV_DISPLAY_SEVENSEG
022D  2087  	CALL FCM_SevenS_00051
022E  3004  	MOVLW 0x04
022F  00CA  	MOVWF gbl_FCV_SCAN1
0230  01CB  	CLRF gbl_FCV_SCAN2
0231  20F8  	CALL FCM_Scan_00000
0232  3001  	MOVLW 0x01
0233  1683  	BSF STATUS, RP0
0234  0405  	IORWF gbl_trisa, W
0235  0085  	MOVWF gbl_trisa
0236  3001  	MOVLW 0x01
0237  1283  	BCF STATUS, RP0
0238  0505  	ANDWF gbl_porta, W
0239  00E2  	MOVWF CompTempVar2199
023A  01E3  	CLRF CompTempVar2200
023B  0362  	DECF CompTempVar2199, W
023C  1903  	BTFSC STATUS,Z
023D  0AE3  	INCF CompTempVar2200, F
023E  1347  	BCF gbl_FCV_SWITCH4,6
023F  0863  	MOVF CompTempVar2200, W
0240  1D03  	BTFSS STATUS,Z
0241  1747  	BSF gbl_FCV_SWITCH4,6
0242  3002  	MOVLW 0x02
0243  1683  	BSF STATUS, RP0
0244  0405  	IORWF gbl_trisa, W
0245  0085  	MOVWF gbl_trisa
0246  3002  	MOVLW 0x02
0247  1283  	BCF STATUS, RP0
0248  0505  	ANDWF gbl_porta, W
0249  00E2  	MOVWF CompTempVar2201
024A  01E3  	CLRF CompTempVar2202
024B  3002  	MOVLW 0x02
024C  0262  	SUBWF CompTempVar2201, W
024D  1903  	BTFSC STATUS,Z
024E  0AE3  	INCF CompTempVar2202, F
024F  1053  	BCF gbl_FCV_SWITCH5,0
0250  0863  	MOVF CompTempVar2202, W
0251  1D03  	BTFSS STATUS,Z
0252  1453  	BSF gbl_FCV_SWITCH5,0
0253  1D53  	BTFSS gbl_FCV_TOG_GUEST,2
0254  2A62  	GOTO	label39
0255  01E3  	CLRF CompTempVar2204
0256  1F47  	BTFSS gbl_FCV_SWITCH4,6
0257  2A59  	GOTO	label38
0258  0AE3  	INCF CompTempVar2204, F
0259        label38
0259  01E2  	CLRF CompTempVar2203
025A  1853  	BTFSC gbl_FCV_SWITCH5,0
025B  0AE2  	INCF CompTempVar2203, F
025C  0862  	MOVF CompTempVar2203, W
025D  0563  	ANDWF CompTempVar2204, W
025E  1903  	BTFSC STATUS,Z
025F  2A62  	GOTO	label39
0260  034E  	DECF gbl_FCV_COUNTER, W
0261  00CE  	MOVWF gbl_FCV_COUNTER
0262        label39
0262  01E1  	CLRF CompTempVar2198
0263  1F47  	BTFSS gbl_FCV_SWITCH4,6
0264  0AE1  	INCF CompTempVar2198, F
0265  01E0  	CLRF CompTempVar2197
0266  1D53  	BTFSS gbl_FCV_TOG_GUEST,2
0267  0AE0  	INCF CompTempVar2197, F
0268  0860  	MOVF CompTempVar2197, W
0269  0561  	ANDWF CompTempVar2198, W
026A  1903  	BTFSC STATUS,Z
026B  2A70  	GOTO	label40
026C  3001  	MOVLW 0x01
026D  00D6  	MOVWF gbl_FCV_BTN_GUEST
026E  1553  	BSF gbl_FCV_TOG_GUEST,2
026F  2A7D  	GOTO	label41
0270        label40
0270  01D6  	CLRF gbl_FCV_BTN_GUEST
0271  01E3  	CLRF CompTempVar2206
0272  0AE3  	INCF CompTempVar2206, F
0273  08CE  	MOVF gbl_FCV_COUNTER, F
0274  1D03  	BTFSS STATUS,Z
0275  1063  	BCF CompTempVar2206,0
0276  01E2  	CLRF CompTempVar2205
0277  1953  	BTFSC gbl_FCV_TOG_GUEST,2
0278  0AE2  	INCF CompTempVar2205, F
0279  0862  	MOVF CompTempVar2205, W
027A  0563  	ANDWF CompTempVar2206, W
027B  1D03  	BTFSS STATUS,Z
027C  1153  	BCF gbl_FCV_TOG_GUEST,2
027D        label41
027D  1853  	BTFSC gbl_FCV_SWITCH5,0
027E  2A81  	GOTO	label42
027F  15D3  	BSF gbl_FCV_BTN_BUZZER,3
0280  2A82  	GOTO	label43
0281        label42
0281  11D3  	BCF gbl_FCV_BTN_BUZZER,3
0282        label43
0282  08CE  	MOVF gbl_FCV_COUNTER, F
0283  1D03  	BTFSS STATUS,Z
0284  0008  	RETURN
0285  3014  	MOVLW 0x14
0286  00CE  	MOVWF gbl_FCV_COUNTER
0287  0008  	RETURN
0288        ; } FCM_btn_scan1 function end

	ORG 0x00000288
0288        __rem_8_8_00000
0288        ; { __rem_8_8 ; function begin
0288  01E6  	CLRF CompTempVarRet220
0289  01E4  	CLRF __rem_8_8_00000_1_c
028A  01E5  	CLRF __rem_8_8_00000_1_i
028B        label44
028B  19E5  	BTFSC __rem_8_8_00000_1_i,3
028C  0008  	RETURN
028D  1003  	BCF STATUS,C
028E  0DE4  	RLF __rem_8_8_00000_1_c, F
028F  0DE2  	RLF __rem_8_8_00000_arg_a, F
0290  0DE6  	RLF CompTempVarRet220, F
0291  0863  	MOVF __rem_8_8_00000_arg_b, W
0292  0266  	SUBWF CompTempVarRet220, W
0293  1C03  	BTFSS STATUS,C
0294  2A97  	GOTO	label45
0295  00E6  	MOVWF CompTempVarRet220
0296  1464  	BSF __rem_8_8_00000_1_c,0
0297        label45
0297  0AE5  	INCF __rem_8_8_00000_1_i, F
0298  2A8B  	GOTO	label44
0299        ; } __rem_8_8 function end

	ORG 0x00000299
0299        __div_8_8_00000
0299        ; { __div_8_8 ; function begin
0299  01E4  	CLRF __div_8_8_00000_1_r
029A  01E6  	CLRF CompTempVarRet218
029B  01E5  	CLRF __div_8_8_00000_1_i
029C        label46
029C  19E5  	BTFSC __div_8_8_00000_1_i,3
029D  0008  	RETURN
029E  1003  	BCF STATUS,C
029F  0DE6  	RLF CompTempVarRet218, F
02A0  0DE0  	RLF __div_8_8_00000_arg_a, F
02A1  0DE4  	RLF __div_8_8_00000_1_r, F
02A2  0861  	MOVF __div_8_8_00000_arg_b, W
02A3  0264  	SUBWF __div_8_8_00000_1_r, W
02A4  1C03  	BTFSS STATUS,C
02A5  2AA8  	GOTO	label47
02A6  00E4  	MOVWF __div_8_8_00000_1_r
02A7  1466  	BSF CompTempVarRet218,0
02A8        label47
02A8  0AE5  	INCF __div_8_8_00000_1_i, F
02A9  2A9C  	GOTO	label46
02AA        ; } __div_8_8 function end

	ORG 0x000002AA
02AA        FCM_variab_00058
02AA        ; { FCM_variable_conditions ; function begin
02AA  1283  	BCF STATUS, RP0
02AB  1303  	BCF STATUS, RP1
02AC  01E1  	CLRF CompTempVar2232
02AD  0854  	MOVF gbl_FCV_HOMESCORE, W
02AE  3CC7  	SUBLW 0xC7
02AF  1C03  	BTFSS STATUS,C
02B0  0AE1  	INCF CompTempVar2232, F
02B1  01E0  	CLRF CompTempVar2231
02B2  30FF  	MOVLW 0xFF
02B3  0254  	SUBWF gbl_FCV_HOMESCORE, W
02B4  1C03  	BTFSS STATUS,C
02B5  0AE0  	INCF CompTempVar2231, F
02B6  0860  	MOVF CompTempVar2231, W
02B7  0561  	ANDWF CompTempVar2232, W
02B8  1903  	BTFSC STATUS,Z
02B9  2ABC  	GOTO	label48
02BA  30C7  	MOVLW 0xC7
02BB  00D4  	MOVWF gbl_FCV_HOMESCORE
02BC        label48
02BC  0A54  	INCF gbl_FCV_HOMESCORE, W
02BD  1903  	BTFSC STATUS,Z
02BE  01D4  	CLRF gbl_FCV_HOMESCORE
02BF  01E3  	CLRF CompTempVar2234
02C0  0852  	MOVF gbl_FCV_GUESTSCORE, W
02C1  3CC7  	SUBLW 0xC7
02C2  1C03  	BTFSS STATUS,C
02C3  0AE3  	INCF CompTempVar2234, F
02C4  01E2  	CLRF CompTempVar2233
02C5  30FF  	MOVLW 0xFF
02C6  0252  	SUBWF gbl_FCV_GUESTSCORE, W
02C7  1C03  	BTFSS STATUS,C
02C8  0AE2  	INCF CompTempVar2233, F
02C9  0862  	MOVF CompTempVar2233, W
02CA  0563  	ANDWF CompTempVar2234, W
02CB  1903  	BTFSC STATUS,Z
02CC  2ACF  	GOTO	label49
02CD  30C7  	MOVLW 0xC7
02CE  00D2  	MOVWF gbl_FCV_GUESTSCORE
02CF        label49
02CF  0A52  	INCF gbl_FCV_GUESTSCORE, W
02D0  1903  	BTFSC STATUS,Z
02D1  01D2  	CLRF gbl_FCV_GUESTSCORE
02D2  0008  	RETURN
02D3        ; } FCM_variable_conditions function end

	ORG 0x000002D3
02D3        FCM_btn_co_00059
02D3        ; { FCM_btn_conditions ; function begin
02D3  1283  	BCF STATUS, RP0
02D4  1303  	BCF STATUS, RP1
02D5  1DD3  	BTFSS gbl_FCV_BTN_BUZZER,3
02D6  2AE3  	GOTO	label50
02D7  307F  	MOVLW 0x7F
02D8  1683  	BSF STATUS, RP0
02D9  0506  	ANDWF gbl_trisb, W
02DA  0086  	MOVWF gbl_trisb
02DB  307F  	MOVLW 0x7F
02DC  1283  	BCF STATUS, RP0
02DD  0506  	ANDWF gbl_portb, W
02DE  00E0  	MOVWF CompTempVar2235
02DF  3080  	MOVLW 0x80
02E0  0460  	IORWF CompTempVar2235, W
02E1  0086  	MOVWF gbl_portb
02E2  2AEB  	GOTO	label51
02E3        label50
02E3  307F  	MOVLW 0x7F
02E4  1683  	BSF STATUS, RP0
02E5  0506  	ANDWF gbl_trisb, W
02E6  0086  	MOVWF gbl_trisb
02E7  307F  	MOVLW 0x7F
02E8  1283  	BCF STATUS, RP0
02E9  0506  	ANDWF gbl_portb, W
02EA  0086  	MOVWF gbl_portb
02EB        label51
02EB  1E47  	BTFSS gbl_FCV_BTN_SHOTCLOCK,4
02EC  2AF4  	GOTO	label53
02ED  1C47  	BTFSS gbl_FCV_BTN_SHIFT,0
02EE  2AF2  	GOTO	label52
02EF  300E  	MOVLW 0x0E
02F0  00D7  	MOVWF gbl_FCV_SHOTCLOCK
02F1  2AF4  	GOTO	label53
02F2        label52
02F2  3018  	MOVLW 0x18
02F3  00D7  	MOVWF gbl_FCV_SHOTCLOCK
02F4        label53
02F4  1CC7  	BTFSS gbl_FCV_BTN_HOME,1
02F5  2B00  	GOTO	label55
02F6  1C47  	BTFSS gbl_FCV_BTN_SHIFT,0
02F7  2AFE  	GOTO	label54
02F8  08D4  	MOVF gbl_FCV_HOMESCORE, F
02F9  1903  	BTFSC STATUS,Z
02FA  2B00  	GOTO	label55
02FB  0354  	DECF gbl_FCV_HOMESCORE, W
02FC  00D4  	MOVWF gbl_FCV_HOMESCORE
02FD  2B00  	GOTO	label55
02FE        label54
02FE  0A54  	INCF gbl_FCV_HOMESCORE, W
02FF  00D4  	MOVWF gbl_FCV_HOMESCORE
0300        label55
0300  0356  	DECF gbl_FCV_BTN_GUEST, W
0301  1D03  	BTFSS STATUS,Z
0302  0008  	RETURN
0303  1C47  	BTFSS gbl_FCV_BTN_SHIFT,0
0304  2B0B  	GOTO	label56
0305  08D2  	MOVF gbl_FCV_GUESTSCORE, F
0306  1903  	BTFSC STATUS,Z
0307  0008  	RETURN
0308  0352  	DECF gbl_FCV_GUESTSCORE, W
0309  00D2  	MOVWF gbl_FCV_GUESTSCORE
030A  0008  	RETURN
030B        label56
030B  0A52  	INCF gbl_FCV_GUESTSCORE, W
030C  00D2  	MOVWF gbl_FCV_GUESTSCORE
030D  0008  	RETURN
030E        ; } FCM_btn_conditions function end

	ORG 0x0000030E
030E        FCM_Displa_00053
030E        ; { FCM_Display_SevenSegment ; function begin
030E  30FF  	MOVLW 0xFF
030F  1283  	BCF STATUS, RP0
0310  1303  	BCF STATUS, RP1
0311  00D1  	MOVWF gbl_FCV_DISPLAY_SEVENSEG
0312  2087  	CALL FCM_SevenS_00051
0313  20F8  	CALL FCM_Scan_00000
0314  0859  	MOVF gbl_FCV_TODISPLAY_SS, W
0315  00D1  	MOVWF gbl_FCV_DISPLAY_SEVENSEG
0316  2087  	CALL FCM_SevenS_00051
0317  30C8  	MOVLW 0xC8
0318  00E0  	MOVWF delay_us_00000_arg_del
0319  2010  	CALL delay_us_00000
031A  0008  	RETURN
031B        ; } FCM_Display_SevenSegment function end

	ORG 0x0000031B
031B        FCM_Button_00054
031B        ; { FCM_Buttons ; function begin
031B  2229  	CALL FCM_btn_sc_00055
031C  21BD  	CALL FCM_btn_sc_00056
031D  2148  	CALL FCM_btn_sc_00057
031E  0008  	RETURN
031F        ; } FCM_Buttons function end

	ORG 0x0000031F
031F        main
031F        ; { main ; function begin
031F  3007  	MOVLW 0x07
0320  1283  	BCF STATUS, RP0
0321  1303  	BCF STATUS, RP1
0322  009F  	MOVWF gbl_cmcon
0323  30C0  	MOVLW 0xC0
0324  1683  	BSF STATUS, RP0
0325  0081  	MOVWF gbl_option_reg
0326  30FF  	MOVLW 0xFF
0327  1283  	BCF STATUS, RP0
0328  00CA  	MOVWF gbl_FCV_SCAN1
0329  00CB  	MOVWF gbl_FCV_SCAN2
032A  3018  	MOVLW 0x18
032B  00D7  	MOVWF gbl_FCV_SHOTCLOCK
032C  01D4  	CLRF gbl_FCV_HOMESCORE
032D  01D2  	CLRF gbl_FCV_GUESTSCORE
032E  3001  	MOVLW 0x01
032F  00CC  	MOVWF gbl_FCV_PERIOD
0330  300A  	MOVLW 0x0A
0331  00D0  	MOVWF gbl_FCV_GTIME_MIN
0332  01CF  	CLRF gbl_FCV_GTIME_SEC
0333  01D8  	CLRF gbl_FCV_FLAG_STARTSTOP
0334  3014  	MOVLW 0x14
0335  00CE  	MOVWF gbl_FCV_COUNTER
0336  3032  	MOVLW 0x32
0337  00C6  	MOVWF gbl_FCV_COUNTER2
0338  3014  	MOVLW 0x14
0339  00C9  	MOVWF gbl_FCV_COUNTER3
033A  170B  	BSF gbl_intcon,6
033B  1012  	BCF gbl_t2con,0
033C  1492  	BSF gbl_t2con,1
033D  1512  	BSF gbl_t2con,2
033E  3007  	MOVLW 0x07
033F  0512  	ANDWF gbl_t2con, W
0340  00DC  	MOVWF CompTempVar2245
0341  3078  	MOVLW 0x78
0342  045C  	IORWF CompTempVar2245, W
0343  0092  	MOVWF gbl_t2con
0344  300F  	MOVLW 0x0F
0345  1683  	BSF STATUS, RP0
0346  0092  	MOVWF gbl_pr2
0347  178B  	BSF gbl_intcon,7
0348  148C  	BSF gbl_pie1,1
0349  1283  	BCF STATUS, RP0
034A  01B9  	CLRF gbl_FCV_TIME_CNT
034B  01BA  	CLRF gbl_FCV_TIME_CNT+D'1'
034C  01BB  	CLRF gbl_FCV_BUZZER_CNT
034D  01BC  	CLRF gbl_FCV_BUZZER_CNT+D'1'
034E  307F  	MOVLW 0x7F
034F  1683  	BSF STATUS, RP0
0350  0506  	ANDWF gbl_trisb, W
0351  0086  	MOVWF gbl_trisb
0352  307F  	MOVLW 0x7F
0353  1283  	BCF STATUS, RP0
0354  0506  	ANDWF gbl_portb, W
0355  0086  	MOVWF gbl_portb
0356        label57
0356  22AA  	CALL FCM_variab_00058
0357  231B  	CALL FCM_Button_00054
0358  01CA  	CLRF gbl_FCV_SCAN1
0359  3008  	MOVLW 0x08
035A  00CB  	MOVWF gbl_FCV_SCAN2
035B  0854  	MOVF gbl_FCV_HOMESCORE, W
035C  00E0  	MOVWF __div_8_8_00000_arg_a
035D  3064  	MOVLW 0x64
035E  00E1  	MOVWF __div_8_8_00000_arg_b
035F  2299  	CALL __div_8_8_00000
0360  0866  	MOVF CompTempVarRet218, W
0361  00D9  	MOVWF gbl_FCV_TODISPLAY_SS
0362  08D9  	MOVF gbl_FCV_TODISPLAY_SS, F
0363  1D03  	BTFSS STATUS,Z
0364  2B67  	GOTO	label58
0365  30FF  	MOVLW 0xFF
0366  00D9  	MOVWF gbl_FCV_TODISPLAY_SS
0367        label58
0367  230E  	CALL FCM_Displa_00053
0368  01CA  	CLRF gbl_FCV_SCAN1
0369  3004  	MOVLW 0x04
036A  00CB  	MOVWF gbl_FCV_SCAN2
036B  0854  	MOVF gbl_FCV_HOMESCORE, W
036C  00E0  	MOVWF __div_8_8_00000_arg_a
036D  300A  	MOVLW 0x0A
036E  00E1  	MOVWF __div_8_8_00000_arg_b
036F  2299  	CALL __div_8_8_00000
0370  0866  	MOVF CompTempVarRet218, W
0371  00E2  	MOVWF __rem_8_8_00000_arg_a
0372  300A  	MOVLW 0x0A
0373  00E3  	MOVWF __rem_8_8_00000_arg_b
0374  2288  	CALL __rem_8_8_00000
0375  0866  	MOVF CompTempVarRet220, W
0376  00D9  	MOVWF gbl_FCV_TODISPLAY_SS
0377  01DD  	CLRF CompTempVar2247
0378  0ADD  	INCF CompTempVar2247, F
0379  08D9  	MOVF gbl_FCV_TODISPLAY_SS, F
037A  1D03  	BTFSS STATUS,Z
037B  105D  	BCF CompTempVar2247,0
037C  01DC  	CLRF CompTempVar2246
037D  3064  	MOVLW 0x64
037E  0254  	SUBWF gbl_FCV_HOMESCORE, W
037F  1C03  	BTFSS STATUS,C
0380  0ADC  	INCF CompTempVar2246, F
0381  085C  	MOVF CompTempVar2246, W
0382  055D  	ANDWF CompTempVar2247, W
0383  1903  	BTFSC STATUS,Z
0384  2B87  	GOTO	label59
0385  30FF  	MOVLW 0xFF
0386  00D9  	MOVWF gbl_FCV_TODISPLAY_SS
0387        label59
0387  230E  	CALL FCM_Displa_00053
0388  01CA  	CLRF gbl_FCV_SCAN1
0389  3002  	MOVLW 0x02
038A  00CB  	MOVWF gbl_FCV_SCAN2
038B  0854  	MOVF gbl_FCV_HOMESCORE, W
038C  00E2  	MOVWF __rem_8_8_00000_arg_a
038D  300A  	MOVLW 0x0A
038E  00E3  	MOVWF __rem_8_8_00000_arg_b
038F  2288  	CALL __rem_8_8_00000
0390  0866  	MOVF CompTempVarRet220, W
0391  00D9  	MOVWF gbl_FCV_TODISPLAY_SS
0392  230E  	CALL FCM_Displa_00053
0393  01CA  	CLRF gbl_FCV_SCAN1
0394  3001  	MOVLW 0x01
0395  00CB  	MOVWF gbl_FCV_SCAN2
0396  0852  	MOVF gbl_FCV_GUESTSCORE, W
0397  00E0  	MOVWF __div_8_8_00000_arg_a
0398  3064  	MOVLW 0x64
0399  00E1  	MOVWF __div_8_8_00000_arg_b
039A  2299  	CALL __div_8_8_00000
039B  0866  	MOVF CompTempVarRet218, W
039C  00D9  	MOVWF gbl_FCV_TODISPLAY_SS
039D  01DF  	CLRF CompTempVar2249
039E  0ADF  	INCF CompTempVar2249, F
039F  08D9  	MOVF gbl_FCV_TODISPLAY_SS, F
03A0  1D03  	BTFSS STATUS,Z
03A1  105F  	BCF CompTempVar2249,0
03A2  01DE  	CLRF CompTempVar2248
03A3  3064  	MOVLW 0x64
03A4  0252  	SUBWF gbl_FCV_GUESTSCORE, W
03A5  1C03  	BTFSS STATUS,C
03A6  0ADE  	INCF CompTempVar2248, F
03A7  085E  	MOVF CompTempVar2248, W
03A8  055F  	ANDWF CompTempVar2249, W
03A9  1903  	BTFSC STATUS,Z
03AA  2BAD  	GOTO	label60
03AB  30FF  	MOVLW 0xFF
03AC  00D9  	MOVWF gbl_FCV_TODISPLAY_SS
03AD        label60
03AD  230E  	CALL FCM_Displa_00053
03AE  3080  	MOVLW 0x80
03AF  00CA  	MOVWF gbl_FCV_SCAN1
03B0  01CB  	CLRF gbl_FCV_SCAN2
03B1  0852  	MOVF gbl_FCV_GUESTSCORE, W
03B2  00E0  	MOVWF __div_8_8_00000_arg_a
03B3  300A  	MOVLW 0x0A
03B4  00E1  	MOVWF __div_8_8_00000_arg_b
03B5  2299  	CALL __div_8_8_00000
03B6  0866  	MOVF CompTempVarRet218, W
03B7  00E2  	MOVWF __rem_8_8_00000_arg_a
03B8  300A  	MOVLW 0x0A
03B9  00E3  	MOVWF __rem_8_8_00000_arg_b
03BA  2288  	CALL __rem_8_8_00000
03BB  0866  	MOVF CompTempVarRet220, W
03BC  00D9  	MOVWF gbl_FCV_TODISPLAY_SS
03BD  08D9  	MOVF gbl_FCV_TODISPLAY_SS, F
03BE  1D03  	BTFSS STATUS,Z
03BF  2BC2  	GOTO	label61
03C0  30FF  	MOVLW 0xFF
03C1  00D9  	MOVWF gbl_FCV_TODISPLAY_SS
03C2        label61
03C2  230E  	CALL FCM_Displa_00053
03C3  3040  	MOVLW 0x40
03C4  00CA  	MOVWF gbl_FCV_SCAN1
03C5  01CB  	CLRF gbl_FCV_SCAN2
03C6  0852  	MOVF gbl_FCV_GUESTSCORE, W
03C7  00E2  	MOVWF __rem_8_8_00000_arg_a
03C8  300A  	MOVLW 0x0A
03C9  00E3  	MOVWF __rem_8_8_00000_arg_b
03CA  2288  	CALL __rem_8_8_00000
03CB  0866  	MOVF CompTempVarRet220, W
03CC  00D9  	MOVWF gbl_FCV_TODISPLAY_SS
03CD  230E  	CALL FCM_Displa_00053
03CE  3010  	MOVLW 0x10
03CF  00CA  	MOVWF gbl_FCV_SCAN1
03D0  01CB  	CLRF gbl_FCV_SCAN2
03D1  0857  	MOVF gbl_FCV_SHOTCLOCK, W
03D2  00E0  	MOVWF __div_8_8_00000_arg_a
03D3  300A  	MOVLW 0x0A
03D4  00E1  	MOVWF __div_8_8_00000_arg_b
03D5  2299  	CALL __div_8_8_00000
03D6  0866  	MOVF CompTempVarRet218, W
03D7  00D9  	MOVWF gbl_FCV_TODISPLAY_SS
03D8  08D9  	MOVF gbl_FCV_TODISPLAY_SS, F
03D9  1D03  	BTFSS STATUS,Z
03DA  2BDD  	GOTO	label62
03DB  30FF  	MOVLW 0xFF
03DC  00D9  	MOVWF gbl_FCV_TODISPLAY_SS
03DD        label62
03DD  230E  	CALL FCM_Displa_00053
03DE  3008  	MOVLW 0x08
03DF  00CA  	MOVWF gbl_FCV_SCAN1
03E0  01CB  	CLRF gbl_FCV_SCAN2
03E1  0857  	MOVF gbl_FCV_SHOTCLOCK, W
03E2  00E2  	MOVWF __rem_8_8_00000_arg_a
03E3  300A  	MOVLW 0x0A
03E4  00E3  	MOVWF __rem_8_8_00000_arg_b
03E5  2288  	CALL __rem_8_8_00000
03E6  0866  	MOVF CompTempVarRet220, W
03E7  00D9  	MOVWF gbl_FCV_TODISPLAY_SS
03E8  230E  	CALL FCM_Displa_00053
03E9  3004  	MOVLW 0x04
03EA  00CA  	MOVWF gbl_FCV_SCAN1
03EB  01CB  	CLRF gbl_FCV_SCAN2
03EC  084C  	MOVF gbl_FCV_PERIOD, W
03ED  00D9  	MOVWF gbl_FCV_TODISPLAY_SS
03EE  230E  	CALL FCM_Displa_00053
03EF  01CA  	CLRF gbl_FCV_SCAN1
03F0  3080  	MOVLW 0x80
03F1  00CB  	MOVWF gbl_FCV_SCAN2
03F2  0850  	MOVF gbl_FCV_GTIME_MIN, W
03F3  00E0  	MOVWF __div_8_8_00000_arg_a
03F4  300A  	MOVLW 0x0A
03F5  00E1  	MOVWF __div_8_8_00000_arg_b
03F6  2299  	CALL __div_8_8_00000
03F7  0866  	MOVF CompTempVarRet218, W
03F8  00D9  	MOVWF gbl_FCV_TODISPLAY_SS
03F9  08D9  	MOVF gbl_FCV_TODISPLAY_SS, F
03FA  1D03  	BTFSS STATUS,Z
03FB  2BFE  	GOTO	label63
03FC  30FF  	MOVLW 0xFF
03FD  00D9  	MOVWF gbl_FCV_TODISPLAY_SS
03FE        label63
03FE  230E  	CALL FCM_Displa_00053
03FF  01CA  	CLRF gbl_FCV_SCAN1
0400  3040  	MOVLW 0x40
0401  00CB  	MOVWF gbl_FCV_SCAN2
0402  0850  	MOVF gbl_FCV_GTIME_MIN, W
0403  00E2  	MOVWF __rem_8_8_00000_arg_a
0404  300A  	MOVLW 0x0A
0405  00E3  	MOVWF __rem_8_8_00000_arg_b
0406  2288  	CALL __rem_8_8_00000
0407  0866  	MOVF CompTempVarRet220, W
0408  00D9  	MOVWF gbl_FCV_TODISPLAY_SS
0409  230E  	CALL FCM_Displa_00053
040A  01CA  	CLRF gbl_FCV_SCAN1
040B  3020  	MOVLW 0x20
040C  00CB  	MOVWF gbl_FCV_SCAN2
040D  084F  	MOVF gbl_FCV_GTIME_SEC, W
040E  00E0  	MOVWF __div_8_8_00000_arg_a
040F  300A  	MOVLW 0x0A
0410  00E1  	MOVWF __div_8_8_00000_arg_b
0411  2299  	CALL __div_8_8_00000
0412  0866  	MOVF CompTempVarRet218, W
0413  00D9  	MOVWF gbl_FCV_TODISPLAY_SS
0414  230E  	CALL FCM_Displa_00053
0415  01CA  	CLRF gbl_FCV_SCAN1
0416  3010  	MOVLW 0x10
0417  00CB  	MOVWF gbl_FCV_SCAN2
0418  084F  	MOVF gbl_FCV_GTIME_SEC, W
0419  00E2  	MOVWF __rem_8_8_00000_arg_a
041A  300A  	MOVLW 0x0A
041B  00E3  	MOVWF __rem_8_8_00000_arg_b
041C  2288  	CALL __rem_8_8_00000
041D  0866  	MOVF CompTempVarRet220, W
041E  00D9  	MOVWF gbl_FCV_TODISPLAY_SS
041F  230E  	CALL FCM_Displa_00053
0420  22D3  	CALL FCM_btn_co_00059
0421  2B56  	GOTO	label57
0422        ; } main function end

	ORG 0x00000422
0422        _startup
0422  30D5  	MOVLW 0xD5
0423  1283  	BCF STATUS, RP0
0424  1303  	BCF STATUS, RP1
0425  00A0  	MOVWF gbl_14_LSR
0426  30C4  	MOVLW 0xC4
0427  00A1  	MOVWF gbl_14_LSR+D'1'
0428  30BB  	MOVLW 0xBB
0429  00A2  	MOVWF gbl_14_LSR+D'2'
042A  30DC  	MOVLW 0xDC
042B  00A3  	MOVWF gbl_14_LSR+D'3'
042C  01A4  	CLRF gbl_15_gbl_aSig
042D  01A5  	CLRF gbl_15_gbl_aSig+D'1'
042E  01A6  	CLRF gbl_15_gbl_aSig+D'2'
042F  01A7  	CLRF gbl_15_gbl_aSig+D'3'
0430  01A8  	CLRF gbl_15_gbl_bSig
0431  01A9  	CLRF gbl_15_gbl_bSig+D'1'
0432  01AA  	CLRF gbl_15_gbl_bSig+D'2'
0433  01AB  	CLRF gbl_15_gbl_bSig+D'3'
0434  01AC  	CLRF gbl_15_gbl_zSig
0435  01AD  	CLRF gbl_15_gbl_zSig+D'1'
0436  01AE  	CLRF gbl_15_gbl_zSig+D'2'
0437  01AF  	CLRF gbl_15_gbl_zSig+D'3'
0438  01C0  	CLRF gbl_15_gbl_aExp
0439  01C1  	CLRF gbl_15_gbl_bExp
043A  01B7  	CLRF gbl_15_gbl_zExp
043B  01B8  	CLRF gbl_15_gbl_zExp+D'1'
043C  01C2  	CLRF gbl_15_gbl_aSign
043D  01C3  	CLRF gbl_15_gbl_bSign
043E  01C4  	CLRF gbl_15_gbl_zSign
043F  01C5  	CLRF gbl_15_gbl_zSigZero
0440  01B0  	CLRF gbl_15_gbl_ret
0441  01B1  	CLRF gbl_15_gbl_ret+D'1'
0442  01B2  	CLRF gbl_15_gbl_ret+D'2'
0443  01B3  	CLRF gbl_15_gbl_ret+D'3'
0444  01BE  	CLRF gbl_float_rounding_mode
0445  01BF  	CLRF gbl_float_exception_flags
0446  01BD  	CLRF gbl_float_detect_tininess
0447  3032  	MOVLW 0x32
0448  00C6  	MOVWF gbl_FCV_COUNTER2
0449  1047  	BCF gbl_FCV_BTN_SHIFT,0
044A  10C7  	BCF gbl_FCV_BTN_HOME,1
044B  01C8  	CLRF gbl_FCV_TOG_SHOTCLOCK
044C  3032  	MOVLW 0x32
044D  00C9  	MOVWF gbl_FCV_COUNTER3
044E  30FF  	MOVLW 0xFF
044F  00CA  	MOVWF gbl_FCV_SCAN1
0450  1147  	BCF gbl_FCV_FLAG_BUZZ,2
0451  30FF  	MOVLW 0xFF
0452  00CB  	MOVWF gbl_FCV_SCAN2
0453  15C7  	BSF gbl_FCV_DAT,3
0454  1247  	BCF gbl_FCV_BTN_SHOTCLOCK,4
0455  3001  	MOVLW 0x01
0456  00CC  	MOVWF gbl_FCV_PERIOD
0457  01CD  	CLRF gbl_FCV_GSCORE_TENS
0458  01B9  	CLRF gbl_FCV_TIME_CNT
0459  01BA  	CLRF gbl_FCV_TIME_CNT+D'1'
045A  01D1  	CLRF gbl_FCV_DISPLAY_SEVENSEG
045B  12C7  	BCF gbl_FCV_BTN_TOGGLE,5
045C  01BB  	CLRF gbl_FCV_BUZZER_CNT
045D  01BC  	CLRF gbl_FCV_BUZZER_CNT+D'1'
045E  1747  	BSF gbl_FCV_SWITCH4,6
045F  13C7  	BCF gbl_FCV_BTN_STARTSTOP,7
0460  1453  	BSF gbl_FCV_SWITCH5,0
0461  01D4  	CLRF gbl_FCV_HOMESCORE
0462  3001  	MOVLW 0x01
0463  00D5  	MOVWF gbl_FCV_SWITCH6
0464  01D6  	CLRF gbl_FCV_BTN_GUEST
0465  10D3  	BCF gbl_FCV_TOG_HOME,1
0466  1153  	BCF gbl_FCV_TOG_GUEST,2
0467  01D8  	CLRF gbl_FCV_FLAG_STARTSTOP
0468  01D9  	CLRF gbl_FCV_TODISPLAY_SS
0469  11D3  	BCF gbl_FCV_BTN_BUZZER,3
046A  118A  	BCF PCLATH,3
046B  120A  	BCF PCLATH,4
046C  2B1F  	GOTO	main
	ORG 0x0000046D
046D        interrupt
046D        ; { interrupt ; function begin
046D  1283  	BCF STATUS, RP0
046E  1303  	BCF STATUS, RP1
046F  1C8C  	BTFSS gbl_pir1,1
0470  2C76  	GOTO	label65
0471  1683  	BSF STATUS, RP0
0472  1C8C  	BTFSS gbl_pie1,1
0473  2C76  	GOTO	label65
0474  2015  	CALL FCM_TIMEKE_0005A
0475  108C  	BCF gbl_pir1,1
0476        label65
0476  1283  	BCF STATUS, RP0
0477  0E36  	SWAPF Int1BContext+D'2', W
0478  0084  	MOVWF FSR
0479  0E35  	SWAPF Int1BContext+D'1', W
047A  008A  	MOVWF PCLATH
047B  0E34  	SWAPF Int1BContext, W
047C  0083  	MOVWF STATUS
047D  0EFF  	SWAPF Int1Context, F
047E  0E7F  	SWAPF Int1Context, W
047F  0009  	RETFIE
0480        ; } interrupt function end

	ORG 0x00002007
2007  3F0A  	DW 0x3F0A
