;/////////////////////////////////////////////////////////////////////////////////
;// Code Generator: BoostC Compiler - http://www.sourceboost.com
;// Version       : 7.03
;// License Type  : Lite License (Unregistered)
;// Limitations   : PIC12,PIC16 max code size:2048 words, max RAM banks:2, Non commercial use only
;/////////////////////////////////////////////////////////////////////////////////

	ORG 0x00000000
0000  2F8F  	GOTO	_startup
	ORG 0x00000004
0004  00FF  	MOVWF Int1Context
0005  0E03  	SWAPF STATUS, W
0006  1283  	BCF STATUS, RP0
0007  1303  	BCF STATUS, RP1
0008  00B4  	MOVWF Int1BContext
0009  0E0A  	SWAPF PCLATH, W
000A  00B5  	MOVWF Int1BContext+D'1'
000B  0E04  	SWAPF FSR, W
000C  00B6  	MOVWF Int1BContext+D'2'
000D  118A  	BCF PCLATH,3
000E  120A  	BCF PCLATH,4
000F  2FE6  	GOTO	interrupt
	ORG 0x00000010
0010        delay_us_00000
0010        ; { delay_us ; function begin
0010        label1
0010  0000  	NOP
0011  0000  	NOP
0012  0BFA  	DECFSZ delay_us_00000_arg_del, F
0013  2810  	GOTO	label1
0014  0008  	RETURN
0015        ; } delay_us function end

	ORG 0x00000015
0015        FCM_TIMEKE_0005A
0015        ; { FCM_TIMEKEEP ; function begin
0015  1283  	BCF STATUS, RP0
0016  1303  	BCF STATUS, RP1
0017  1ECF  	BTFSS gbl_FCV_FLAG_BUZZER,5
0018  28DC  	GOTO	label18
0019  1647  	BSF gbl_FCV_FLAG_TOG_BUZZ,4
001A  08B9  	MOVF gbl_FCV_TIME_BUZZER_COUNTER, F
001B  08BA  	MOVF gbl_FCV_TIME_BUZZER_COUNTER+D'1', F
001C  0AB9  	INCF gbl_FCV_TIME_BUZZER_COUNTER, F
001D  1903  	BTFSC STATUS,Z
001E  0ABA  	INCF gbl_FCV_TIME_BUZZER_COUNTER+D'1', F
001F  30FB  	MOVLW 0xFB
0020  1683  	BSF STATUS, RP0
0021  0505  	ANDWF gbl_trisa, W
0022  0085  	MOVWF gbl_trisa
0023  30FB  	MOVLW 0xFB
0024  1283  	BCF STATUS, RP0
0025  0505  	ANDWF gbl_porta, W
0026  1683  	BSF STATUS, RP0
0027  00A2  	MOVWF CompTempVar2234
0028  3004  	MOVLW 0x04
0029  0422  	IORWF CompTempVar2234, W
002A  1283  	BCF STATUS, RP0
002B  0085  	MOVWF gbl_porta
002C  300E  	MOVLW 0x0E
002D  023A  	SUBWF gbl_FCV_TIME_BUZZER_COUNTER+D'1', W
002E  1D03  	BTFSS STATUS,Z
002F  2832  	GOTO	label2
0030  304C  	MOVLW 0x4C
0031  0239  	SUBWF gbl_FCV_TIME_BUZZER_COUNTER, W
0032        label2
0032  1C03  	BTFSS STATUS,C
0033  2858  	GOTO	label5
0034  1683  	BSF STATUS, RP0
0035  01A3  	CLRF CompTempVar2236
0036  1283  	BCF STATUS, RP0
0037  084D  	MOVF gbl_FCV_GAMETIME_MIN, W
0038  3C00  	SUBLW 0x00
0039  1803  	BTFSC STATUS,C
003A  283D  	GOTO	label3
003B  1683  	BSF STATUS, RP0
003C  0AA3  	INCF CompTempVar2236, F
003D        label3
003D  1683  	BSF STATUS, RP0
003E  01A2  	CLRF CompTempVar2235
003F  1283  	BCF STATUS, RP0
0040  084C  	MOVF gbl_FCV_GAMETIME_SEC, W
0041  3C00  	SUBLW 0x00
0042  1803  	BTFSC STATUS,C
0043  2846  	GOTO	label4
0044  1683  	BSF STATUS, RP0
0045  0AA2  	INCF CompTempVar2235, F
0046        label4
0046  1683  	BSF STATUS, RP0
0047  0822  	MOVF CompTempVar2235, W
0048  0423  	IORWF CompTempVar2236, W
0049  1903  	BTFSC STATUS,Z
004A  2858  	GOTO	label5
004B  30FB  	MOVLW 0xFB
004C  0505  	ANDWF gbl_trisa, W
004D  0085  	MOVWF gbl_trisa
004E  30FB  	MOVLW 0xFB
004F  1283  	BCF STATUS, RP0
0050  0505  	ANDWF gbl_porta, W
0051  0085  	MOVWF gbl_porta
0052  3018  	MOVLW 0x18
0053  00D5  	MOVWF gbl_FCV_SHOTCLOCK
0054  12CF  	BCF gbl_FCV_FLAG_BUZZER,5
0055  01B9  	CLRF gbl_FCV_TIME_BUZZER_COUNTER
0056  01BA  	CLRF gbl_FCV_TIME_BUZZER_COUNTER+D'1'
0057  1247  	BCF gbl_FCV_FLAG_TOG_BUZZ,4
0058        label5
0058  1683  	BSF STATUS, RP0
0059  01A1  	CLRF CompTempVar2231
005A  3017  	MOVLW 0x17
005B  1283  	BCF STATUS, RP0
005C  023A  	SUBWF gbl_FCV_TIME_BUZZER_COUNTER+D'1', W
005D  30D4  	MOVLW 0xD4
005E  1903  	BTFSC STATUS,Z
005F  0239  	SUBWF gbl_FCV_TIME_BUZZER_COUNTER, W
0060  1C03  	BTFSS STATUS,C
0061  2864  	GOTO	label6
0062  1683  	BSF STATUS, RP0
0063  0AA1  	INCF CompTempVar2231, F
0064        label6
0064  1683  	BSF STATUS, RP0
0065  01A0  	CLRF CompTempVar2230
0066  0AA0  	INCF CompTempVar2230, F
0067  1283  	BCF STATUS, RP0
0068  08CC  	MOVF gbl_FCV_GAMETIME_SEC, F
0069  1903  	BTFSC STATUS,Z
006A  286D  	GOTO	label7
006B  1683  	BSF STATUS, RP0
006C  1020  	BCF CompTempVar2230,0
006D        label7
006D  1683  	BSF STATUS, RP0
006E  0820  	MOVF CompTempVar2230, W
006F  0521  	ANDWF CompTempVar2231, W
0070  1903  	BTFSC STATUS,Z
0071  28DC  	GOTO	label18
0072  01A4  	CLRF CompTempVar2240
0073  0AA4  	INCF CompTempVar2240, F
0074  1283  	BCF STATUS, RP0
0075  08CD  	MOVF gbl_FCV_GAMETIME_MIN, F
0076  1903  	BTFSC STATUS,Z
0077  287A  	GOTO	label8
0078  1683  	BSF STATUS, RP0
0079  1024  	BCF CompTempVar2240,0
007A        label8
007A  1683  	BSF STATUS, RP0
007B  01A2  	CLRF CompTempVar2237
007C  0AA2  	INCF CompTempVar2237, F
007D  1283  	BCF STATUS, RP0
007E  08CC  	MOVF gbl_FCV_GAMETIME_SEC, F
007F  1903  	BTFSC STATUS,Z
0080  2883  	GOTO	label9
0081  1683  	BSF STATUS, RP0
0082  1022  	BCF CompTempVar2237,0
0083        label9
0083  1683  	BSF STATUS, RP0
0084  0822  	MOVF CompTempVar2237, W
0085  05A4  	ANDWF CompTempVar2240, F
0086  01A3  	CLRF CompTempVar2239
0087  0AA3  	INCF CompTempVar2239, F
0088  1283  	BCF STATUS, RP0
0089  08D4  	MOVF gbl_FCV_GAMETIME_MILLIS, F
008A  1903  	BTFSC STATUS,Z
008B  288E  	GOTO	label10
008C  1683  	BSF STATUS, RP0
008D  1023  	BCF CompTempVar2239,0
008E        label10
008E  1683  	BSF STATUS, RP0
008F  0823  	MOVF CompTempVar2239, W
0090  0524  	ANDWF CompTempVar2240, W
0091  1903  	BTFSC STATUS,Z
0092  28DC  	GOTO	label18
0093  30FB  	MOVLW 0xFB
0094  0505  	ANDWF gbl_trisa, W
0095  0085  	MOVWF gbl_trisa
0096  30FB  	MOVLW 0xFB
0097  1283  	BCF STATUS, RP0
0098  0505  	ANDWF gbl_porta, W
0099  0085  	MOVWF gbl_porta
009A  1683  	BSF STATUS, RP0
009B  01A6  	CLRF CompTempVar2242
009C  3004  	MOVLW 0x04
009D  1283  	BCF STATUS, RP0
009E  024B  	SUBWF gbl_FCV_PERIOD, W
009F  1D03  	BTFSS STATUS,Z
00A0  28A3  	GOTO	label11
00A1  1683  	BSF STATUS, RP0
00A2  0AA6  	INCF CompTempVar2242, F
00A3        label11
00A3  1683  	BSF STATUS, RP0
00A4  01A5  	CLRF CompTempVar2241
00A5  3005  	MOVLW 0x05
00A6  1283  	BCF STATUS, RP0
00A7  024B  	SUBWF gbl_FCV_PERIOD, W
00A8  1D03  	BTFSS STATUS,Z
00A9  28AC  	GOTO	label12
00AA  1683  	BSF STATUS, RP0
00AB  0AA5  	INCF CompTempVar2241, F
00AC        label12
00AC  1683  	BSF STATUS, RP0
00AD  0825  	MOVF CompTempVar2241, W
00AE  0426  	IORWF CompTempVar2242, W
00AF  1903  	BTFSC STATUS,Z
00B0  28CE  	GOTO	label16
00B1  1283  	BCF STATUS, RP0
00B2  0850  	MOVF gbl_FCV_GUESTSCORE, W
00B3  0652  	XORWF gbl_FCV_HOMESCORE, W
00B4  1D03  	BTFSS STATUS,Z
00B5  28C1  	GOTO	label13
00B6  3005  	MOVLW 0x05
00B7  00CD  	MOVWF gbl_FCV_GAMETIME_MIN
00B8  01CC  	CLRF gbl_FCV_GAMETIME_SEC
00B9  3018  	MOVLW 0x18
00BA  00D5  	MOVWF gbl_FCV_SHOTCLOCK
00BB  3005  	MOVLW 0x05
00BC  00CB  	MOVWF gbl_FCV_PERIOD
00BD  12CF  	BCF gbl_FCV_FLAG_BUZZER,5
00BE  01B9  	CLRF gbl_FCV_TIME_BUZZER_COUNTER
00BF  01BA  	CLRF gbl_FCV_TIME_BUZZER_COUNTER+D'1'
00C0  28CC  	GOTO	label15
00C1        label13
00C1  17CF  	BSF gbl_FCV_WINNER_AVAILABLE,7
00C2  0852  	MOVF gbl_FCV_HOMESCORE, W
00C3  0250  	SUBWF gbl_FCV_GUESTSCORE, W
00C4  1803  	BTFSC STATUS,C
00C5  28C8  	GOTO	label14
00C6  11D6  	BCF gbl_FCV_WINNER,3
00C7  28CC  	GOTO	label15
00C8        label14
00C8  0850  	MOVF gbl_FCV_GUESTSCORE, W
00C9  0252  	SUBWF gbl_FCV_HOMESCORE, W
00CA  1C03  	BTFSS STATUS,C
00CB  15D6  	BSF gbl_FCV_WINNER,3
00CC        label15
00CC  1056  	BCF gbl_FCV_FLAG_STARTSTOP,0
00CD  28DA  	GOTO	label17
00CE        label16
00CE  300A  	MOVLW 0x0A
00CF  1283  	BCF STATUS, RP0
00D0  00CD  	MOVWF gbl_FCV_GAMETIME_MIN
00D1  01CC  	CLRF gbl_FCV_GAMETIME_SEC
00D2  3018  	MOVLW 0x18
00D3  00D5  	MOVWF gbl_FCV_SHOTCLOCK
00D4  0A4B  	INCF gbl_FCV_PERIOD, W
00D5  00CB  	MOVWF gbl_FCV_PERIOD
00D6  12CF  	BCF gbl_FCV_FLAG_BUZZER,5
00D7  01B9  	CLRF gbl_FCV_TIME_BUZZER_COUNTER
00D8  01BA  	CLRF gbl_FCV_TIME_BUZZER_COUNTER+D'1'
00D9  1056  	BCF gbl_FCV_FLAG_STARTSTOP,0
00DA        label17
00DA  12CF  	BCF gbl_FCV_FLAG_BUZZER,5
00DB  1247  	BCF gbl_FCV_FLAG_TOG_BUZZ,4
00DC        label18
00DC  1283  	BCF STATUS, RP0
00DD  1C56  	BTFSS gbl_FCV_FLAG_STARTSTOP,0
00DE  0008  	RETURN
00DF  08BB  	MOVF gbl_FCV_TIME_COUNTER, F
00E0  08BC  	MOVF gbl_FCV_TIME_COUNTER+D'1', F
00E1  0ABB  	INCF gbl_FCV_TIME_COUNTER, F
00E2  1903  	BTFSC STATUS,Z
00E3  0ABC  	INCF gbl_FCV_TIME_COUNTER+D'1', F
00E4  1683  	BSF STATUS, RP0
00E5  01A1  	CLRF CompTempVar2244
00E6  0AA1  	INCF CompTempVar2244, F
00E7  1283  	BCF STATUS, RP0
00E8  08CD  	MOVF gbl_FCV_GAMETIME_MIN, F
00E9  1903  	BTFSC STATUS,Z
00EA  28ED  	GOTO	label19
00EB  1683  	BSF STATUS, RP0
00EC  1021  	BCF CompTempVar2244,0
00ED        label19
00ED  1683  	BSF STATUS, RP0
00EE  01A0  	CLRF CompTempVar2243
00EF  1283  	BCF STATUS, RP0
00F0  084C  	MOVF gbl_FCV_GAMETIME_SEC, W
00F1  3C3B  	SUBLW 0x3B
00F2  1C03  	BTFSS STATUS,C
00F3  28F6  	GOTO	label20
00F4  1683  	BSF STATUS, RP0
00F5  0AA0  	INCF CompTempVar2243, F
00F6        label20
00F6  1683  	BSF STATUS, RP0
00F7  0820  	MOVF CompTempVar2243, W
00F8  0521  	ANDWF CompTempVar2244, W
00F9  1903  	BTFSC STATUS,Z
00FA  291C  	GOTO	label24
00FB  3000  	MOVLW 0x00
00FC  1283  	BCF STATUS, RP0
00FD  023C  	SUBWF gbl_FCV_TIME_COUNTER+D'1', W
00FE  1D03  	BTFSS STATUS,Z
00FF  2902  	GOTO	label21
0100  307A  	MOVLW 0x7A
0101  023B  	SUBWF gbl_FCV_TIME_COUNTER, W
0102        label21
0102  1C03  	BTFSS STATUS,C
0103  0008  	RETURN
0104  0354  	DECF gbl_FCV_GAMETIME_MILLIS, W
0105  00D4  	MOVWF gbl_FCV_GAMETIME_MILLIS
0106  0A54  	INCF gbl_FCV_GAMETIME_MILLIS, W
0107  1D03  	BTFSS STATUS,Z
0108  2919  	GOTO	label23
0109  3009  	MOVLW 0x09
010A  00D4  	MOVWF gbl_FCV_GAMETIME_MILLIS
010B  034C  	DECF gbl_FCV_GAMETIME_SEC, W
010C  00CC  	MOVWF gbl_FCV_GAMETIME_SEC
010D  0355  	DECF gbl_FCV_SHOTCLOCK, W
010E  00D5  	MOVWF gbl_FCV_SHOTCLOCK
010F  0A4C  	INCF gbl_FCV_GAMETIME_SEC, W
0110  1D03  	BTFSS STATUS,Z
0111  2916  	GOTO	label22
0112  034D  	DECF gbl_FCV_GAMETIME_MIN, W
0113  00CD  	MOVWF gbl_FCV_GAMETIME_MIN
0114  303B  	MOVLW 0x3B
0115  00CC  	MOVWF gbl_FCV_GAMETIME_SEC
0116        label22
0116  08D5  	MOVF gbl_FCV_SHOTCLOCK, F
0117  1903  	BTFSC STATUS,Z
0118  1056  	BCF gbl_FCV_FLAG_STARTSTOP,0
0119        label23
0119  01BB  	CLRF gbl_FCV_TIME_COUNTER
011A  01BC  	CLRF gbl_FCV_TIME_COUNTER+D'1'
011B  0008  	RETURN
011C        label24
011C  3004  	MOVLW 0x04
011D  1283  	BCF STATUS, RP0
011E  023C  	SUBWF gbl_FCV_TIME_COUNTER+D'1', W
011F  1D03  	BTFSS STATUS,Z
0120  2923  	GOTO	label25
0121  30C4  	MOVLW 0xC4
0122  023B  	SUBWF gbl_FCV_TIME_COUNTER, W
0123        label25
0123  1C03  	BTFSS STATUS,C
0124  0008  	RETURN
0125  034C  	DECF gbl_FCV_GAMETIME_SEC, W
0126  00CC  	MOVWF gbl_FCV_GAMETIME_SEC
0127  0355  	DECF gbl_FCV_SHOTCLOCK, W
0128  00D5  	MOVWF gbl_FCV_SHOTCLOCK
0129  0A4C  	INCF gbl_FCV_GAMETIME_SEC, W
012A  1D03  	BTFSS STATUS,Z
012B  2930  	GOTO	label26
012C  034D  	DECF gbl_FCV_GAMETIME_MIN, W
012D  00CD  	MOVWF gbl_FCV_GAMETIME_MIN
012E  303B  	MOVLW 0x3B
012F  00CC  	MOVWF gbl_FCV_GAMETIME_SEC
0130        label26
0130  08D5  	MOVF gbl_FCV_SHOTCLOCK, F
0131  1903  	BTFSC STATUS,Z
0132  1056  	BCF gbl_FCV_FLAG_STARTSTOP,0
0133  01BB  	CLRF gbl_FCV_TIME_COUNTER
0134  01BC  	CLRF gbl_FCV_TIME_COUNTER+D'1'
0135  0008  	RETURN
0136        ; } FCM_TIMEKEEP function end

	ORG 0x00000136
0136        FCM_clk_pu_00052
0136        ; { FCM_clk_pulse ; function begin
0136  30EF  	MOVLW 0xEF
0137  1683  	BSF STATUS, RP0
0138  1303  	BCF STATUS, RP1
0139  0505  	ANDWF gbl_trisa, W
013A  0085  	MOVWF gbl_trisa
013B  30EF  	MOVLW 0xEF
013C  1283  	BCF STATUS, RP0
013D  0505  	ANDWF gbl_porta, W
013E  00FA  	MOVWF CompTempVar2188
013F  3010  	MOVLW 0x10
0140  047A  	IORWF CompTempVar2188, W
0141  0085  	MOVWF gbl_porta
0142  30EF  	MOVLW 0xEF
0143  1683  	BSF STATUS, RP0
0144  0505  	ANDWF gbl_trisa, W
0145  0085  	MOVWF gbl_trisa
0146  30EF  	MOVLW 0xEF
0147  1283  	BCF STATUS, RP0
0148  0505  	ANDWF gbl_porta, W
0149  0085  	MOVWF gbl_porta
014A  0008  	RETURN
014B        ; } FCM_clk_pulse function end

	ORG 0x0000014B
014B        FCM_SevenS_00051
014B        ; { FCM_SevenSegment ; function begin
014B  1283  	BCF STATUS, RP0
014C  1303  	BCF STATUS, RP1
014D  084E  	MOVF gbl_FCV_DISPLAY_SEVENSEG, W
014E  3A01  	XORLW 0x01
014F  1903  	BTFSC STATUS,Z
0150  296D  	GOTO	label27
0151  3A03  	XORLW 0x03
0152  1903  	BTFSC STATUS,Z
0153  2973  	GOTO	label28
0154  3A01  	XORLW 0x01
0155  1903  	BTFSC STATUS,Z
0156  2979  	GOTO	label29
0157  3A07  	XORLW 0x07
0158  1903  	BTFSC STATUS,Z
0159  297F  	GOTO	label30
015A  3A01  	XORLW 0x01
015B  1903  	BTFSC STATUS,Z
015C  2985  	GOTO	label31
015D  3A03  	XORLW 0x03
015E  1903  	BTFSC STATUS,Z
015F  298B  	GOTO	label32
0160  3A01  	XORLW 0x01
0161  1903  	BTFSC STATUS,Z
0162  2991  	GOTO	label33
0163  3A0F  	XORLW 0x0F
0164  1903  	BTFSC STATUS,Z
0165  2997  	GOTO	label34
0166  3A01  	XORLW 0x01
0167  1903  	BTFSC STATUS,Z
0168  299D  	GOTO	label35
0169  3A09  	XORLW 0x09
016A  1903  	BTFSC STATUS,Z
016B  29A3  	GOTO	label36
016C  29A9  	GOTO	label37
016D        label27
016D  1683  	BSF STATUS, RP0
016E  0186  	CLRF gbl_trisb
016F  3006  	MOVLW 0x06
0170  1283  	BCF STATUS, RP0
0171  0086  	MOVWF gbl_portb
0172  0008  	RETURN
0173        label28
0173  1683  	BSF STATUS, RP0
0174  0186  	CLRF gbl_trisb
0175  305B  	MOVLW 0x5B
0176  1283  	BCF STATUS, RP0
0177  0086  	MOVWF gbl_portb
0178  0008  	RETURN
0179        label29
0179  1683  	BSF STATUS, RP0
017A  0186  	CLRF gbl_trisb
017B  304F  	MOVLW 0x4F
017C  1283  	BCF STATUS, RP0
017D  0086  	MOVWF gbl_portb
017E  0008  	RETURN
017F        label30
017F  1683  	BSF STATUS, RP0
0180  0186  	CLRF gbl_trisb
0181  3066  	MOVLW 0x66
0182  1283  	BCF STATUS, RP0
0183  0086  	MOVWF gbl_portb
0184  0008  	RETURN
0185        label31
0185  1683  	BSF STATUS, RP0
0186  0186  	CLRF gbl_trisb
0187  306D  	MOVLW 0x6D
0188  1283  	BCF STATUS, RP0
0189  0086  	MOVWF gbl_portb
018A  0008  	RETURN
018B        label32
018B  1683  	BSF STATUS, RP0
018C  0186  	CLRF gbl_trisb
018D  307D  	MOVLW 0x7D
018E  1283  	BCF STATUS, RP0
018F  0086  	MOVWF gbl_portb
0190  0008  	RETURN
0191        label33
0191  1683  	BSF STATUS, RP0
0192  0186  	CLRF gbl_trisb
0193  3007  	MOVLW 0x07
0194  1283  	BCF STATUS, RP0
0195  0086  	MOVWF gbl_portb
0196  0008  	RETURN
0197        label34
0197  1683  	BSF STATUS, RP0
0198  0186  	CLRF gbl_trisb
0199  307F  	MOVLW 0x7F
019A  1283  	BCF STATUS, RP0
019B  0086  	MOVWF gbl_portb
019C  0008  	RETURN
019D        label35
019D  1683  	BSF STATUS, RP0
019E  0186  	CLRF gbl_trisb
019F  306F  	MOVLW 0x6F
01A0  1283  	BCF STATUS, RP0
01A1  0086  	MOVWF gbl_portb
01A2  0008  	RETURN
01A3        label36
01A3  1683  	BSF STATUS, RP0
01A4  0186  	CLRF gbl_trisb
01A5  303F  	MOVLW 0x3F
01A6  1283  	BCF STATUS, RP0
01A7  0086  	MOVWF gbl_portb
01A8  0008  	RETURN
01A9        label37
01A9  084E  	MOVF gbl_FCV_DISPLAY_SEVENSEG, W
01AA  3A0A  	XORLW 0x0A
01AB  1903  	BTFSC STATUS,Z
01AC  29B4  	GOTO	label38
01AD  3AF5  	XORLW 0xF5
01AE  1903  	BTFSC STATUS,Z
01AF  29BA  	GOTO	label39
01B0  3AF4  	XORLW 0xF4
01B1  1903  	BTFSC STATUS,Z
01B2  29BF  	GOTO	label40
01B3  0008  	RETURN
01B4        label38
01B4  1683  	BSF STATUS, RP0
01B5  0186  	CLRF gbl_trisb
01B6  3073  	MOVLW 0x73
01B7  1283  	BCF STATUS, RP0
01B8  0086  	MOVWF gbl_portb
01B9  0008  	RETURN
01BA        label39
01BA  1683  	BSF STATUS, RP0
01BB  0186  	CLRF gbl_trisb
01BC  1283  	BCF STATUS, RP0
01BD  0186  	CLRF gbl_portb
01BE  0008  	RETURN
01BF        label40
01BF  1683  	BSF STATUS, RP0
01C0  0186  	CLRF gbl_trisb
01C1  305C  	MOVLW 0x5C
01C2  1283  	BCF STATUS, RP0
01C3  0086  	MOVWF gbl_portb
01C4  0008  	RETURN
01C5        ; } FCM_SevenSegment function end

	ORG 0x000001C5
01C5        FCM_Scan_S_00053
01C5        ; { FCM_Scan_ShiftReg ; function begin
01C5  1283  	BCF STATUS, RP0
01C6  1303  	BCF STATUS, RP1
01C7  01DC  	CLRF gbl_FCLV_LOOP2
01C8        label41
01C8  3008  	MOVLW 0x08
01C9  025C  	SUBWF gbl_FCLV_LOOP2, W
01CA  1803  	BTFSC STATUS,C
01CB  29EE  	GOTO	label44
01CC  3001  	MOVLW 0x01
01CD  0548  	ANDWF gbl_FCV_SCAN1, W
01CE  00FA  	MOVWF CompTempVar2189
01CF  01FB  	CLRF CompTempVar2190
01D0  08FA  	MOVF CompTempVar2189, F
01D1  1D03  	BTFSS STATUS,Z
01D2  147B  	BSF CompTempVar2190,0
01D3  11C7  	BCF gbl_FCV_DAT,3
01D4  087B  	MOVF CompTempVar2190, W
01D5  1D03  	BTFSS STATUS,Z
01D6  15C7  	BSF gbl_FCV_DAT,3
01D7  30F7  	MOVLW 0xF7
01D8  1683  	BSF STATUS, RP0
01D9  0505  	ANDWF gbl_trisa, W
01DA  0085  	MOVWF gbl_trisa
01DB  1283  	BCF STATUS, RP0
01DC  1DC7  	BTFSS gbl_FCV_DAT,3
01DD  29E5  	GOTO	label42
01DE  30F7  	MOVLW 0xF7
01DF  0505  	ANDWF gbl_porta, W
01E0  00FA  	MOVWF CompTempVar2191
01E1  3008  	MOVLW 0x08
01E2  047A  	IORWF CompTempVar2191, W
01E3  0085  	MOVWF gbl_porta
01E4  29E8  	GOTO	label43
01E5        label42
01E5  30F7  	MOVLW 0xF7
01E6  0505  	ANDWF gbl_porta, W
01E7  0085  	MOVWF gbl_porta
01E8        label43
01E8  2136  	CALL FCM_clk_pu_00052
01E9  08C8  	MOVF gbl_FCV_SCAN1, F
01EA  1003  	BCF STATUS,C
01EB  0CC8  	RRF gbl_FCV_SCAN1, F
01EC  0ADC  	INCF gbl_FCLV_LOOP2, F
01ED  29C8  	GOTO	label41
01EE        label44
01EE  01DD  	CLRF gbl_FCLV_LOOP3
01EF        label45
01EF  3008  	MOVLW 0x08
01F0  025D  	SUBWF gbl_FCLV_LOOP3, W
01F1  1803  	BTFSC STATUS,C
01F2  0008  	RETURN
01F3  3001  	MOVLW 0x01
01F4  054A  	ANDWF gbl_FCV_SCAN2, W
01F5  00FA  	MOVWF CompTempVar2193
01F6  01FB  	CLRF CompTempVar2194
01F7  08FA  	MOVF CompTempVar2193, F
01F8  1D03  	BTFSS STATUS,Z
01F9  147B  	BSF CompTempVar2194,0
01FA  11C7  	BCF gbl_FCV_DAT,3
01FB  087B  	MOVF CompTempVar2194, W
01FC  1D03  	BTFSS STATUS,Z
01FD  15C7  	BSF gbl_FCV_DAT,3
01FE  30F7  	MOVLW 0xF7
01FF  1683  	BSF STATUS, RP0
0200  0505  	ANDWF gbl_trisa, W
0201  0085  	MOVWF gbl_trisa
0202  1283  	BCF STATUS, RP0
0203  1DC7  	BTFSS gbl_FCV_DAT,3
0204  2A0C  	GOTO	label46
0205  30F7  	MOVLW 0xF7
0206  0505  	ANDWF gbl_porta, W
0207  00FA  	MOVWF CompTempVar2195
0208  3008  	MOVLW 0x08
0209  047A  	IORWF CompTempVar2195, W
020A  0085  	MOVWF gbl_porta
020B  2A0F  	GOTO	label47
020C        label46
020C  30F7  	MOVLW 0xF7
020D  0505  	ANDWF gbl_porta, W
020E  0085  	MOVWF gbl_porta
020F        label47
020F  2136  	CALL FCM_clk_pu_00052
0210  08CA  	MOVF gbl_FCV_SCAN2, F
0211  1003  	BCF STATUS,C
0212  0CCA  	RRF gbl_FCV_SCAN2, F
0213  0ADD  	INCF gbl_FCLV_LOOP3, F
0214  29EF  	GOTO	label45
0215        ; } FCM_Scan_ShiftReg function end

	ORG 0x00000215
0215        __rem_8_8_00000
0215        ; { __rem_8_8 ; function begin
0215  01FE  	CLRF CompTempVarRet220
0216  01FC  	CLRF __rem_8_8_00000_1_c
0217  01FD  	CLRF __rem_8_8_00000_1_i
0218        label48
0218  19FD  	BTFSC __rem_8_8_00000_1_i,3
0219  0008  	RETURN
021A  1003  	BCF STATUS,C
021B  0DFC  	RLF __rem_8_8_00000_1_c, F
021C  0DF8  	RLF __rem_8_8_00000_arg_a, F
021D  0DFE  	RLF CompTempVarRet220, F
021E  0879  	MOVF __rem_8_8_00000_arg_b, W
021F  027E  	SUBWF CompTempVarRet220, W
0220  1C03  	BTFSS STATUS,C
0221  2A24  	GOTO	label49
0222  00FE  	MOVWF CompTempVarRet220
0223  147C  	BSF __rem_8_8_00000_1_c,0
0224        label49
0224  0AFD  	INCF __rem_8_8_00000_1_i, F
0225  2A18  	GOTO	label48
0226        ; } __rem_8_8 function end

	ORG 0x00000226
0226        __div_8_8_00000
0226        ; { __div_8_8 ; function begin
0226  01FC  	CLRF __div_8_8_00000_1_r
0227  01FE  	CLRF CompTempVarRet218
0228  01FD  	CLRF __div_8_8_00000_1_i
0229        label50
0229  19FD  	BTFSC __div_8_8_00000_1_i,3
022A  0008  	RETURN
022B  1003  	BCF STATUS,C
022C  0DFE  	RLF CompTempVarRet218, F
022D  0DFA  	RLF __div_8_8_00000_arg_a, F
022E  0DFC  	RLF __div_8_8_00000_1_r, F
022F  087B  	MOVF __div_8_8_00000_arg_b, W
0230  027C  	SUBWF __div_8_8_00000_1_r, W
0231  1C03  	BTFSS STATUS,C
0232  2A35  	GOTO	label51
0233  00FC  	MOVWF __div_8_8_00000_1_r
0234  147E  	BSF CompTempVarRet218,0
0235        label51
0235  0AFD  	INCF __div_8_8_00000_1_i, F
0236  2A29  	GOTO	label50
0237        ; } __div_8_8 function end

	ORG 0x00000237
0237        FCM_btn_sc_00058
0237        ; { FCM_btn_scan3 ; function begin
0237  1683  	BSF STATUS, RP0
0238  1303  	BCF STATUS, RP1
0239  0186  	CLRF gbl_trisb
023A  1283  	BCF STATUS, RP0
023B  0186  	CLRF gbl_portb
023C  3010  	MOVLW 0x10
023D  00C8  	MOVWF gbl_FCV_SCAN1
023E  01CA  	CLRF gbl_FCV_SCAN2
023F  21C5  	CALL FCM_Scan_S_00053
0240  3001  	MOVLW 0x01
0241  1683  	BSF STATUS, RP0
0242  0405  	IORWF gbl_trisa, W
0243  0085  	MOVWF gbl_trisa
0244  3001  	MOVLW 0x01
0245  1283  	BCF STATUS, RP0
0246  0505  	ANDWF gbl_porta, W
0247  00DE  	MOVWF CompTempVar2205
0248  01DF  	CLRF CompTempVar2206
0249  035E  	DECF CompTempVar2205, W
024A  1903  	BTFSC STATUS,Z
024B  0ADF  	INCF CompTempVar2206, F
024C  114F  	BCF gbl_FCV_SWITCH4,2
024D  085F  	MOVF CompTempVar2206, W
024E  1D03  	BTFSS STATUS,Z
024F  154F  	BSF gbl_FCV_SWITCH4,2
0250  3002  	MOVLW 0x02
0251  1683  	BSF STATUS, RP0
0252  0405  	IORWF gbl_trisa, W
0253  0085  	MOVWF gbl_trisa
0254  3002  	MOVLW 0x02
0255  1283  	BCF STATUS, RP0
0256  0505  	ANDWF gbl_porta, W
0257  00DE  	MOVWF CompTempVar2207
0258  01DF  	CLRF CompTempVar2208
0259  3002  	MOVLW 0x02
025A  025E  	SUBWF CompTempVar2207, W
025B  1903  	BTFSC STATUS,Z
025C  0ADF  	INCF CompTempVar2208, F
025D  124F  	BCF gbl_FCV_SWITCH5,4
025E  085F  	MOVF CompTempVar2208, W
025F  1D03  	BTFSS STATUS,Z
0260  164F  	BSF gbl_FCV_SWITCH5,4
0261  194F  	BTFSC gbl_FCV_SWITCH4,2
0262  2A65  	GOTO	label52
0263  14C7  	BSF gbl_FCV_BTN_HOME,1
0264  0008  	RETURN
0265        label52
0265  10C7  	BCF gbl_FCV_BTN_HOME,1
0266  104F  	BCF gbl_FCV_TOGGLE_HOME,0
0267  1A4F  	BTFSC gbl_FCV_SWITCH5,4
0268  2A6C  	GOTO	label53
0269  3001  	MOVLW 0x01
026A  00C9  	MOVWF gbl_FCV_BTN_SHOTCLOCK
026B  0008  	RETURN
026C        label53
026C  01C9  	CLRF gbl_FCV_BTN_SHOTCLOCK
026D  1147  	BCF gbl_FCV_TOGGLE_SHOTCLOCK,2
026E  0008  	RETURN
026F        ; } FCM_btn_scan3 function end

	ORG 0x0000026F
026F        FCM_btn_sc_00057
026F        ; { FCM_btn_scan2 ; function begin
026F  1683  	BSF STATUS, RP0
0270  1303  	BCF STATUS, RP1
0271  0186  	CLRF gbl_trisb
0272  1283  	BCF STATUS, RP0
0273  0186  	CLRF gbl_portb
0274  3008  	MOVLW 0x08
0275  00C8  	MOVWF gbl_FCV_SCAN1
0276  01CA  	CLRF gbl_FCV_SCAN2
0277  21C5  	CALL FCM_Scan_S_00053
0278  3001  	MOVLW 0x01
0279  1683  	BSF STATUS, RP0
027A  0405  	IORWF gbl_trisa, W
027B  0085  	MOVWF gbl_trisa
027C  3001  	MOVLW 0x01
027D  1283  	BCF STATUS, RP0
027E  0505  	ANDWF gbl_porta, W
027F  00DE  	MOVWF CompTempVar2201
0280  01DF  	CLRF CompTempVar2202
0281  035E  	DECF CompTempVar2201, W
0282  1903  	BTFSC STATUS,Z
0283  0ADF  	INCF CompTempVar2202, F
0284  114F  	BCF gbl_FCV_SWITCH4,2
0285  085F  	MOVF CompTempVar2202, W
0286  1D03  	BTFSS STATUS,Z
0287  154F  	BSF gbl_FCV_SWITCH4,2
0288  3002  	MOVLW 0x02
0289  1683  	BSF STATUS, RP0
028A  0405  	IORWF gbl_trisa, W
028B  0085  	MOVWF gbl_trisa
028C  3002  	MOVLW 0x02
028D  1283  	BCF STATUS, RP0
028E  0505  	ANDWF gbl_porta, W
028F  00DE  	MOVWF CompTempVar2203
0290  01DF  	CLRF CompTempVar2204
0291  3002  	MOVLW 0x02
0292  025E  	SUBWF CompTempVar2203, W
0293  1903  	BTFSC STATUS,Z
0294  0ADF  	INCF CompTempVar2204, F
0295  124F  	BCF gbl_FCV_SWITCH5,4
0296  085F  	MOVF CompTempVar2204, W
0297  1D03  	BTFSS STATUS,Z
0298  164F  	BSF gbl_FCV_SWITCH5,4
0299  194F  	BTFSC gbl_FCV_SWITCH4,2
029A  2A9D  	GOTO	label54
029B  15CF  	BSF gbl_FCV_BTN_STARTSTOP,3
029C  0008  	RETURN
029D        label54
029D  11CF  	BCF gbl_FCV_BTN_STARTSTOP,3
029E  1347  	BCF gbl_FCV_TOGGLE_STARTSTOP,6
029F  1A4F  	BTFSC gbl_FCV_SWITCH5,4
02A0  2AA3  	GOTO	label55
02A1  1447  	BSF gbl_FCV_BTN_SHIFT,0
02A2  0008  	RETURN
02A3        label55
02A3  1047  	BCF gbl_FCV_BTN_SHIFT,0
02A4  0008  	RETURN
02A5        ; } FCM_btn_scan2 function end

	ORG 0x000002A5
02A5        FCM_btn_sc_00056
02A5        ; { FCM_btn_scan1 ; function begin
02A5  1683  	BSF STATUS, RP0
02A6  1303  	BCF STATUS, RP1
02A7  0186  	CLRF gbl_trisb
02A8  1283  	BCF STATUS, RP0
02A9  0186  	CLRF gbl_portb
02AA  3004  	MOVLW 0x04
02AB  00C8  	MOVWF gbl_FCV_SCAN1
02AC  01CA  	CLRF gbl_FCV_SCAN2
02AD  21C5  	CALL FCM_Scan_S_00053
02AE  3001  	MOVLW 0x01
02AF  1683  	BSF STATUS, RP0
02B0  0405  	IORWF gbl_trisa, W
02B1  0085  	MOVWF gbl_trisa
02B2  3001  	MOVLW 0x01
02B3  1283  	BCF STATUS, RP0
02B4  0505  	ANDWF gbl_porta, W
02B5  00DE  	MOVWF CompTempVar2197
02B6  01DF  	CLRF CompTempVar2198
02B7  035E  	DECF CompTempVar2197, W
02B8  1903  	BTFSC STATUS,Z
02B9  0ADF  	INCF CompTempVar2198, F
02BA  114F  	BCF gbl_FCV_SWITCH4,2
02BB  085F  	MOVF CompTempVar2198, W
02BC  1D03  	BTFSS STATUS,Z
02BD  154F  	BSF gbl_FCV_SWITCH4,2
02BE  3002  	MOVLW 0x02
02BF  1683  	BSF STATUS, RP0
02C0  0405  	IORWF gbl_trisa, W
02C1  0085  	MOVWF gbl_trisa
02C2  3002  	MOVLW 0x02
02C3  1283  	BCF STATUS, RP0
02C4  0505  	ANDWF gbl_porta, W
02C5  00DE  	MOVWF CompTempVar2199
02C6  01DF  	CLRF CompTempVar2200
02C7  3002  	MOVLW 0x02
02C8  025E  	SUBWF CompTempVar2199, W
02C9  1903  	BTFSC STATUS,Z
02CA  0ADF  	INCF CompTempVar2200, F
02CB  124F  	BCF gbl_FCV_SWITCH5,4
02CC  085F  	MOVF CompTempVar2200, W
02CD  1D03  	BTFSS STATUS,Z
02CE  164F  	BSF gbl_FCV_SWITCH5,4
02CF  194F  	BTFSC gbl_FCV_SWITCH4,2
02D0  2AD3  	GOTO	label56
02D1  174F  	BSF gbl_FCV_BTN_GUEST,6
02D2  0008  	RETURN
02D3        label56
02D3  134F  	BCF gbl_FCV_BTN_GUEST,6
02D4  12C7  	BCF gbl_FCV_TOGGLE_GUEST,5
02D5  1A4F  	BTFSC gbl_FCV_SWITCH5,4
02D6  2AD9  	GOTO	label57
02D7  1556  	BSF gbl_FCV_BTN_BUZZER,2
02D8  0008  	RETURN
02D9        label57
02D9  1156  	BCF gbl_FCV_BTN_BUZZER,2
02DA  0008  	RETURN
02DB        ; } FCM_btn_scan1 function end

	ORG 0x000002DB
02DB        FCM_Displa_00054
02DB        ; { FCM_Display_7Seg ; function begin
02DB  30FF  	MOVLW 0xFF
02DC  1283  	BCF STATUS, RP0
02DD  1303  	BCF STATUS, RP1
02DE  00CE  	MOVWF gbl_FCV_DISPLAY_SEVENSEG
02DF  214B  	CALL FCM_SevenS_00051
02E0  21C5  	CALL FCM_Scan_S_00053
02E1  0858  	MOVF gbl_FCV_TODISPLAY_SS, W
02E2  00CE  	MOVWF gbl_FCV_DISPLAY_SEVENSEG
02E3  214B  	CALL FCM_SevenS_00051
02E4  30FA  	MOVLW 0xFA
02E5  00FA  	MOVWF delay_us_00000_arg_del
02E6  2010  	CALL delay_us_00000
02E7  0008  	RETURN
02E8        ; } FCM_Display_7Seg function end

	ORG 0x000002E8
02E8        FCM_button_0005C
02E8        ; { FCM_button_condition_SETTING ; function begin
02E8  1283  	BCF STATUS, RP0
02E9  1303  	BCF STATUS, RP1
02EA  01DF  	CLRF CompTempVar2302
02EB  0349  	DECF gbl_FCV_BTN_SHOTCLOCK, W
02EC  1903  	BTFSC STATUS,Z
02ED  0ADF  	INCF CompTempVar2302, F
02EE  01DE  	CLRF CompTempVar2301
02EF  1D47  	BTFSS gbl_FCV_TOGGLE_SHOTCLOCK,2
02F0  0ADE  	INCF CompTempVar2301, F
02F1  085E  	MOVF CompTempVar2301, W
02F2  055F  	ANDWF CompTempVar2302, W
02F3  1903  	BTFSC STATUS,Z
02F4  2AFE  	GOTO	label58
02F5  0A57  	INCF gbl_FCV_TO_SET, W
02F6  00D7  	MOVWF gbl_FCV_TO_SET
02F7  1547  	BSF gbl_FCV_TOGGLE_SHOTCLOCK,2
02F8  0857  	MOVF gbl_FCV_TO_SET, W
02F9  3A08  	XORLW 0x08
02FA  1D03  	BTFSS STATUS,Z
02FB  2AFE  	GOTO	label58
02FC  3001  	MOVLW 0x01
02FD  00D7  	MOVWF gbl_FCV_TO_SET
02FE        label58
02FE  01E1  	CLRF CompTempVar2304
02FF  19CF  	BTFSC gbl_FCV_BTN_STARTSTOP,3
0300  0AE1  	INCF CompTempVar2304, F
0301  01E0  	CLRF CompTempVar2303
0302  1F47  	BTFSS gbl_FCV_TOGGLE_STARTSTOP,6
0303  0AE0  	INCF CompTempVar2303, F
0304  0860  	MOVF CompTempVar2303, W
0305  0561  	ANDWF CompTempVar2304, W
0306  1903  	BTFSC STATUS,Z
0307  0008  	RETURN
0308  1C47  	BTFSS gbl_FCV_BTN_SHIFT,0
0309  2B1E  	GOTO	label59
030A  10D6  	BCF gbl_FCV_FLAG_SETTIME,1
030B  3001  	MOVLW 0x01
030C  00D7  	MOVWF gbl_FCV_TO_SET
030D  01E3  	CLRF CompTempVar2306
030E  0AE3  	INCF CompTempVar2306, F
030F  08CD  	MOVF gbl_FCV_GAMETIME_MIN, F
0310  1D03  	BTFSS STATUS,Z
0311  1063  	BCF CompTempVar2306,0
0312  01E2  	CLRF CompTempVar2305
0313  0AE2  	INCF CompTempVar2305, F
0314  08CC  	MOVF gbl_FCV_GAMETIME_SEC, F
0315  1D03  	BTFSS STATUS,Z
0316  1062  	BCF CompTempVar2305,0
0317  0862  	MOVF CompTempVar2305, W
0318  0563  	ANDWF CompTempVar2306, W
0319  1903  	BTFSC STATUS,Z
031A  2BA3  	GOTO	label70
031B  3001  	MOVLW 0x01
031C  00CC  	MOVWF gbl_FCV_GAMETIME_SEC
031D  2BA3  	GOTO	label70
031E        label59
031E  0857  	MOVF gbl_FCV_TO_SET, W
031F  3A01  	XORLW 0x01
0320  1903  	BTFSC STATUS,Z
0321  2B35  	GOTO	label60
0322  3A03  	XORLW 0x03
0323  1903  	BTFSC STATUS,Z
0324  2B40  	GOTO	label61
0325  3A01  	XORLW 0x01
0326  1903  	BTFSC STATUS,Z
0327  2B57  	GOTO	label63
0328  3A07  	XORLW 0x07
0329  1903  	BTFSC STATUS,Z
032A  2B62  	GOTO	label64
032B  3A01  	XORLW 0x01
032C  1903  	BTFSC STATUS,Z
032D  2B79  	GOTO	label66
032E  3A03  	XORLW 0x03
032F  1903  	BTFSC STATUS,Z
0330  2B84  	GOTO	label67
0331  3A01  	XORLW 0x01
0332  1903  	BTFSC STATUS,Z
0333  2B9B  	GOTO	label69
0334  2BA3  	GOTO	label70
0335        label60
0335  300A  	MOVLW 0x0A
0336  074D  	ADDWF gbl_FCV_GAMETIME_MIN, W
0337  00CD  	MOVWF gbl_FCV_GAMETIME_MIN
0338  3064  	MOVLW 0x64
0339  024D  	SUBWF gbl_FCV_GAMETIME_MIN, W
033A  1C03  	BTFSS STATUS,C
033B  2BA3  	GOTO	label70
033C  3064  	MOVLW 0x64
033D  024D  	SUBWF gbl_FCV_GAMETIME_MIN, W
033E  00CD  	MOVWF gbl_FCV_GAMETIME_MIN
033F  2BA3  	GOTO	label70
0340        label61
0340  084D  	MOVF gbl_FCV_GAMETIME_MIN, W
0341  00F8  	MOVWF __rem_8_8_00000_arg_a
0342  300A  	MOVLW 0x0A
0343  00F9  	MOVWF __rem_8_8_00000_arg_b
0344  2215  	CALL __rem_8_8_00000
0345  087E  	MOVF CompTempVarRet220, W
0346  3A09  	XORLW 0x09
0347  1D03  	BTFSS STATUS,Z
0348  2B54  	GOTO	label62
0349  084D  	MOVF gbl_FCV_GAMETIME_MIN, W
034A  00F8  	MOVWF __rem_8_8_00000_arg_a
034B  300A  	MOVLW 0x0A
034C  00F9  	MOVWF __rem_8_8_00000_arg_b
034D  2215  	CALL __rem_8_8_00000
034E  087E  	MOVF CompTempVarRet220, W
034F  00D3  	MOVWF gbl_FCV_TEMP_VAR
0350  0853  	MOVF gbl_FCV_TEMP_VAR, W
0351  024D  	SUBWF gbl_FCV_GAMETIME_MIN, W
0352  00CD  	MOVWF gbl_FCV_GAMETIME_MIN
0353  2BA3  	GOTO	label70
0354        label62
0354  0A4D  	INCF gbl_FCV_GAMETIME_MIN, W
0355  00CD  	MOVWF gbl_FCV_GAMETIME_MIN
0356  2BA3  	GOTO	label70
0357        label63
0357  300A  	MOVLW 0x0A
0358  074C  	ADDWF gbl_FCV_GAMETIME_SEC, W
0359  00CC  	MOVWF gbl_FCV_GAMETIME_SEC
035A  303C  	MOVLW 0x3C
035B  024C  	SUBWF gbl_FCV_GAMETIME_SEC, W
035C  1C03  	BTFSS STATUS,C
035D  2BA3  	GOTO	label70
035E  303C  	MOVLW 0x3C
035F  024C  	SUBWF gbl_FCV_GAMETIME_SEC, W
0360  00CC  	MOVWF gbl_FCV_GAMETIME_SEC
0361  2BA3  	GOTO	label70
0362        label64
0362  084C  	MOVF gbl_FCV_GAMETIME_SEC, W
0363  00F8  	MOVWF __rem_8_8_00000_arg_a
0364  300A  	MOVLW 0x0A
0365  00F9  	MOVWF __rem_8_8_00000_arg_b
0366  2215  	CALL __rem_8_8_00000
0367  087E  	MOVF CompTempVarRet220, W
0368  3A09  	XORLW 0x09
0369  1D03  	BTFSS STATUS,Z
036A  2B76  	GOTO	label65
036B  084C  	MOVF gbl_FCV_GAMETIME_SEC, W
036C  00F8  	MOVWF __rem_8_8_00000_arg_a
036D  300A  	MOVLW 0x0A
036E  00F9  	MOVWF __rem_8_8_00000_arg_b
036F  2215  	CALL __rem_8_8_00000
0370  087E  	MOVF CompTempVarRet220, W
0371  00D3  	MOVWF gbl_FCV_TEMP_VAR
0372  0853  	MOVF gbl_FCV_TEMP_VAR, W
0373  024C  	SUBWF gbl_FCV_GAMETIME_SEC, W
0374  00CC  	MOVWF gbl_FCV_GAMETIME_SEC
0375  2BA3  	GOTO	label70
0376        label65
0376  0A4C  	INCF gbl_FCV_GAMETIME_SEC, W
0377  00CC  	MOVWF gbl_FCV_GAMETIME_SEC
0378  2BA3  	GOTO	label70
0379        label66
0379  300A  	MOVLW 0x0A
037A  0755  	ADDWF gbl_FCV_SHOTCLOCK, W
037B  00D5  	MOVWF gbl_FCV_SHOTCLOCK
037C  3064  	MOVLW 0x64
037D  0255  	SUBWF gbl_FCV_SHOTCLOCK, W
037E  1C03  	BTFSS STATUS,C
037F  2BA3  	GOTO	label70
0380  3064  	MOVLW 0x64
0381  0255  	SUBWF gbl_FCV_SHOTCLOCK, W
0382  00D5  	MOVWF gbl_FCV_SHOTCLOCK
0383  2BA3  	GOTO	label70
0384        label67
0384  0855  	MOVF gbl_FCV_SHOTCLOCK, W
0385  00F8  	MOVWF __rem_8_8_00000_arg_a
0386  300A  	MOVLW 0x0A
0387  00F9  	MOVWF __rem_8_8_00000_arg_b
0388  2215  	CALL __rem_8_8_00000
0389  087E  	MOVF CompTempVarRet220, W
038A  3A09  	XORLW 0x09
038B  1D03  	BTFSS STATUS,Z
038C  2B98  	GOTO	label68
038D  0855  	MOVF gbl_FCV_SHOTCLOCK, W
038E  00F8  	MOVWF __rem_8_8_00000_arg_a
038F  300A  	MOVLW 0x0A
0390  00F9  	MOVWF __rem_8_8_00000_arg_b
0391  2215  	CALL __rem_8_8_00000
0392  087E  	MOVF CompTempVarRet220, W
0393  00D3  	MOVWF gbl_FCV_TEMP_VAR
0394  0853  	MOVF gbl_FCV_TEMP_VAR, W
0395  0255  	SUBWF gbl_FCV_SHOTCLOCK, W
0396  00D5  	MOVWF gbl_FCV_SHOTCLOCK
0397  2BA3  	GOTO	label70
0398        label68
0398  0A55  	INCF gbl_FCV_SHOTCLOCK, W
0399  00D5  	MOVWF gbl_FCV_SHOTCLOCK
039A  2BA3  	GOTO	label70
039B        label69
039B  0A4B  	INCF gbl_FCV_PERIOD, W
039C  00CB  	MOVWF gbl_FCV_PERIOD
039D  084B  	MOVF gbl_FCV_PERIOD, W
039E  3A06  	XORLW 0x06
039F  1D03  	BTFSS STATUS,Z
03A0  2BA3  	GOTO	label70
03A1  3001  	MOVLW 0x01
03A2  00CB  	MOVWF gbl_FCV_PERIOD
03A3        label70
03A3  1747  	BSF gbl_FCV_TOGGLE_STARTSTOP,6
03A4  0008  	RETURN
03A5        ; } FCM_button_condition_SETTING function end

	ORG 0x000003A5
03A5        FCM_button_00059
03A5        ; { FCM_button_conditions ; function begin
03A5  1283  	BCF STATUS, RP0
03A6  1303  	BCF STATUS, RP1
03A7  01DF  	CLRF CompTempVar2210
03A8  1956  	BTFSC gbl_FCV_BTN_BUZZER,2
03A9  0ADF  	INCF CompTempVar2210, F
03AA  01DE  	CLRF CompTempVar2209
03AB  1C56  	BTFSS gbl_FCV_FLAG_STARTSTOP,0
03AC  0ADE  	INCF CompTempVar2209, F
03AD  085E  	MOVF CompTempVar2209, W
03AE  055F  	ANDWF CompTempVar2210, W
03AF  1903  	BTFSC STATUS,Z
03B0  2BC7  	GOTO	label71
03B1  30FB  	MOVLW 0xFB
03B2  1683  	BSF STATUS, RP0
03B3  0505  	ANDWF gbl_trisa, W
03B4  0085  	MOVWF gbl_trisa
03B5  30FB  	MOVLW 0xFB
03B6  1283  	BCF STATUS, RP0
03B7  0505  	ANDWF gbl_porta, W
03B8  00E2  	MOVWF CompTempVar2213
03B9  3004  	MOVLW 0x04
03BA  0462  	IORWF CompTempVar2213, W
03BB  0085  	MOVWF gbl_porta
03BC  01E1  	CLRF CompTempVar2212
03BD  1847  	BTFSC gbl_FCV_BTN_SHIFT,0
03BE  0AE1  	INCF CompTempVar2212, F
03BF  01E0  	CLRF CompTempVar2211
03C0  1BCF  	BTFSC gbl_FCV_WINNER_AVAILABLE,7
03C1  0AE0  	INCF CompTempVar2211, F
03C2  0860  	MOVF CompTempVar2211, W
03C3  0561  	ANDWF CompTempVar2212, W
03C4  1D03  	BTFSS STATUS,Z
03C5  17C7  	BSF gbl_FCV_NEW_GAME,7
03C6  2BCF  	GOTO	label72
03C7        label71
03C7  30FB  	MOVLW 0xFB
03C8  1683  	BSF STATUS, RP0
03C9  0505  	ANDWF gbl_trisa, W
03CA  0085  	MOVWF gbl_trisa
03CB  30FB  	MOVLW 0xFB
03CC  1283  	BCF STATUS, RP0
03CD  0505  	ANDWF gbl_porta, W
03CE  0085  	MOVWF gbl_porta
03CF        label72
03CF  1BCF  	BTFSC gbl_FCV_WINNER_AVAILABLE,7
03D0  0008  	RETURN
03D1  01E1  	CLRF CompTempVar2215
03D2  18C7  	BTFSC gbl_FCV_BTN_HOME,1
03D3  0AE1  	INCF CompTempVar2215, F
03D4  01E0  	CLRF CompTempVar2214
03D5  1C4F  	BTFSS gbl_FCV_TOGGLE_HOME,0
03D6  0AE0  	INCF CompTempVar2214, F
03D7  0860  	MOVF CompTempVar2214, W
03D8  0561  	ANDWF CompTempVar2215, W
03D9  1903  	BTFSC STATUS,Z
03DA  2BF7  	GOTO	label77
03DB  1C47  	BTFSS gbl_FCV_BTN_SHIFT,0
03DC  2BE0  	GOTO	label73
03DD  0352  	DECF gbl_FCV_HOMESCORE, W
03DE  00D2  	MOVWF gbl_FCV_HOMESCORE
03DF  2BE2  	GOTO	label74
03E0        label73
03E0  0A52  	INCF gbl_FCV_HOMESCORE, W
03E1  00D2  	MOVWF gbl_FCV_HOMESCORE
03E2        label74
03E2  01E9  	CLRF CompTempVar2223
03E3  30C8  	MOVLW 0xC8
03E4  0252  	SUBWF gbl_FCV_HOMESCORE, W
03E5  1803  	BTFSC STATUS,C
03E6  0AE9  	INCF CompTempVar2223, F
03E7  01E8  	CLRF CompTempVar2222
03E8  30FF  	MOVLW 0xFF
03E9  0252  	SUBWF gbl_FCV_HOMESCORE, W
03EA  1C03  	BTFSS STATUS,C
03EB  0AE8  	INCF CompTempVar2222, F
03EC  0868  	MOVF CompTempVar2222, W
03ED  0569  	ANDWF CompTempVar2223, W
03EE  1903  	BTFSC STATUS,Z
03EF  2BF3  	GOTO	label75
03F0  30C7  	MOVLW 0xC7
03F1  00D2  	MOVWF gbl_FCV_HOMESCORE
03F2  2BF6  	GOTO	label76
03F3        label75
03F3  0A52  	INCF gbl_FCV_HOMESCORE, W
03F4  1903  	BTFSC STATUS,Z
03F5  01D2  	CLRF gbl_FCV_HOMESCORE
03F6        label76
03F6  144F  	BSF gbl_FCV_TOGGLE_HOME,0
03F7        label77
03F7  01E3  	CLRF CompTempVar2217
03F8  1B4F  	BTFSC gbl_FCV_BTN_GUEST,6
03F9  0AE3  	INCF CompTempVar2217, F
03FA  01E2  	CLRF CompTempVar2216
03FB  1EC7  	BTFSS gbl_FCV_TOGGLE_GUEST,5
03FC  0AE2  	INCF CompTempVar2216, F
03FD  0862  	MOVF CompTempVar2216, W
03FE  0563  	ANDWF CompTempVar2217, W
03FF  1903  	BTFSC STATUS,Z
0400  2C1D  	GOTO	label82
0401  1C47  	BTFSS gbl_FCV_BTN_SHIFT,0
0402  2C06  	GOTO	label78
0403  0350  	DECF gbl_FCV_GUESTSCORE, W
0404  00D0  	MOVWF gbl_FCV_GUESTSCORE
0405  2C08  	GOTO	label79
0406        label78
0406  0A50  	INCF gbl_FCV_GUESTSCORE, W
0407  00D0  	MOVWF gbl_FCV_GUESTSCORE
0408        label79
0408  01E9  	CLRF CompTempVar2225
0409  30C8  	MOVLW 0xC8
040A  0250  	SUBWF gbl_FCV_GUESTSCORE, W
040B  1803  	BTFSC STATUS,C
040C  0AE9  	INCF CompTempVar2225, F
040D  01E8  	CLRF CompTempVar2224
040E  30FF  	MOVLW 0xFF
040F  0250  	SUBWF gbl_FCV_GUESTSCORE, W
0410  1C03  	BTFSS STATUS,C
0411  0AE8  	INCF CompTempVar2224, F
0412  0868  	MOVF CompTempVar2224, W
0413  0569  	ANDWF CompTempVar2225, W
0414  1903  	BTFSC STATUS,Z
0415  2C19  	GOTO	label80
0416  30C7  	MOVLW 0xC7
0417  00D0  	MOVWF gbl_FCV_GUESTSCORE
0418  2C1C  	GOTO	label81
0419        label80
0419  0A50  	INCF gbl_FCV_GUESTSCORE, W
041A  1903  	BTFSC STATUS,Z
041B  01D0  	CLRF gbl_FCV_GUESTSCORE
041C        label81
041C  16C7  	BSF gbl_FCV_TOGGLE_GUEST,5
041D        label82
041D  01E5  	CLRF CompTempVar2219
041E  0349  	DECF gbl_FCV_BTN_SHOTCLOCK, W
041F  1903  	BTFSC STATUS,Z
0420  0AE5  	INCF CompTempVar2219, F
0421  01E4  	CLRF CompTempVar2218
0422  1D47  	BTFSS gbl_FCV_TOGGLE_SHOTCLOCK,2
0423  0AE4  	INCF CompTempVar2218, F
0424  0864  	MOVF CompTempVar2218, W
0425  0565  	ANDWF CompTempVar2219, W
0426  1903  	BTFSC STATUS,Z
0427  2C56  	GOTO	label87
0428  1C47  	BTFSS gbl_FCV_BTN_SHIFT,0
0429  2C3E  	GOTO	label84
042A  01E9  	CLRF CompTempVar2227
042B  0AE9  	INCF CompTempVar2227, F
042C  08CD  	MOVF gbl_FCV_GAMETIME_MIN, F
042D  1D03  	BTFSS STATUS,Z
042E  1069  	BCF CompTempVar2227,0
042F  01E8  	CLRF CompTempVar2226
0430  300E  	MOVLW 0x0E
0431  024C  	SUBWF gbl_FCV_GAMETIME_SEC, W
0432  1C03  	BTFSS STATUS,C
0433  0AE8  	INCF CompTempVar2226, F
0434  0868  	MOVF CompTempVar2226, W
0435  0569  	ANDWF CompTempVar2227, W
0436  1903  	BTFSC STATUS,Z
0437  2C3B  	GOTO	label83
0438  084C  	MOVF gbl_FCV_GAMETIME_SEC, W
0439  00D5  	MOVWF gbl_FCV_SHOTCLOCK
043A  2C51  	GOTO	label86
043B        label83
043B  300E  	MOVLW 0x0E
043C  00D5  	MOVWF gbl_FCV_SHOTCLOCK
043D  2C51  	GOTO	label86
043E        label84
043E  01E9  	CLRF CompTempVar2229
043F  0AE9  	INCF CompTempVar2229, F
0440  08CD  	MOVF gbl_FCV_GAMETIME_MIN, F
0441  1D03  	BTFSS STATUS,Z
0442  1069  	BCF CompTempVar2229,0
0443  01E8  	CLRF CompTempVar2228
0444  3018  	MOVLW 0x18
0445  024C  	SUBWF gbl_FCV_GAMETIME_SEC, W
0446  1C03  	BTFSS STATUS,C
0447  0AE8  	INCF CompTempVar2228, F
0448  0868  	MOVF CompTempVar2228, W
0449  0569  	ANDWF CompTempVar2229, W
044A  1903  	BTFSC STATUS,Z
044B  2C4F  	GOTO	label85
044C  084C  	MOVF gbl_FCV_GAMETIME_SEC, W
044D  00D5  	MOVWF gbl_FCV_SHOTCLOCK
044E  2C51  	GOTO	label86
044F        label85
044F  3018  	MOVLW 0x18
0450  00D5  	MOVWF gbl_FCV_SHOTCLOCK
0451        label86
0451  1547  	BSF gbl_FCV_TOGGLE_SHOTCLOCK,2
0452  01BB  	CLRF gbl_FCV_TIME_COUNTER
0453  01BC  	CLRF gbl_FCV_TIME_COUNTER+D'1'
0454  1247  	BCF gbl_FCV_FLAG_TOG_BUZZ,4
0455  12CF  	BCF gbl_FCV_FLAG_BUZZER,5
0456        label87
0456  01E7  	CLRF CompTempVar2221
0457  19CF  	BTFSC gbl_FCV_BTN_STARTSTOP,3
0458  0AE7  	INCF CompTempVar2221, F
0459  01E6  	CLRF CompTempVar2220
045A  1F47  	BTFSS gbl_FCV_TOGGLE_STARTSTOP,6
045B  0AE6  	INCF CompTempVar2220, F
045C  0866  	MOVF CompTempVar2220, W
045D  0567  	ANDWF CompTempVar2221, W
045E  1903  	BTFSC STATUS,Z
045F  0008  	RETURN
0460  1C47  	BTFSS gbl_FCV_BTN_SHIFT,0
0461  2C68  	GOTO	label88
0462  1856  	BTFSC gbl_FCV_FLAG_STARTSTOP,0
0463  2C6F  	GOTO	label91
0464  14D6  	BSF gbl_FCV_FLAG_SETTIME,1
0465  3001  	MOVLW 0x01
0466  00D7  	MOVWF gbl_FCV_TO_SET
0467  2C6F  	GOTO	label91
0468        label88
0468  1C56  	BTFSS gbl_FCV_FLAG_STARTSTOP,0
0469  2C6C  	GOTO	label89
046A  1056  	BCF gbl_FCV_FLAG_STARTSTOP,0
046B  2C6D  	GOTO	label90
046C        label89
046C  1456  	BSF gbl_FCV_FLAG_STARTSTOP,0
046D        label90
046D  01BB  	CLRF gbl_FCV_TIME_COUNTER
046E  01BC  	CLRF gbl_FCV_TIME_COUNTER+D'1'
046F        label91
046F  1747  	BSF gbl_FCV_TOGGLE_STARTSTOP,6
0470  0008  	RETURN
0471        ; } FCM_button_conditions function end

	ORG 0x00000471
0471        FCM_VARIAB_0005E
0471        ; { FCM_VARIABLE_RESET ; function begin
0471  300A  	MOVLW 0x0A
0472  1283  	BCF STATUS, RP0
0473  1303  	BCF STATUS, RP1
0474  00CD  	MOVWF gbl_FCV_GAMETIME_MIN
0475  01CC  	CLRF gbl_FCV_GAMETIME_SEC
0476  3018  	MOVLW 0x18
0477  00D5  	MOVWF gbl_FCV_SHOTCLOCK
0478  01D2  	CLRF gbl_FCV_HOMESCORE
0479  01D0  	CLRF gbl_FCV_GUESTSCORE
047A  3001  	MOVLW 0x01
047B  00CB  	MOVWF gbl_FCV_PERIOD
047C  01D1  	CLRF gbl_FCV_BUTTON_SCAN
047D  11D6  	BCF gbl_FCV_WINNER,3
047E  13CF  	BCF gbl_FCV_WINNER_AVAILABLE,7
047F  13C7  	BCF gbl_FCV_NEW_GAME,7
0480  1056  	BCF gbl_FCV_FLAG_STARTSTOP,0
0481  12CF  	BCF gbl_FCV_FLAG_BUZZER,5
0482  10D6  	BCF gbl_FCV_FLAG_SETTIME,1
0483  1247  	BCF gbl_FCV_FLAG_TOG_BUZZ,4
0484  11CF  	BCF gbl_FCV_BTN_STARTSTOP,3
0485  0008  	RETURN
0486        ; } FCM_VARIABLE_RESET function end

	ORG 0x00000486
0486        FCM_SB_con_0005D
0486        ; { FCM_SB_conditions ; function begin
0486  1283  	BCF STATUS, RP0
0487  1303  	BCF STATUS, RP1
0488  01E0  	CLRF CompTempVar2310
0489  0AE0  	INCF CompTempVar2310, F
048A  08CD  	MOVF gbl_FCV_GAMETIME_MIN, F
048B  1D03  	BTFSS STATUS,Z
048C  1060  	BCF CompTempVar2310,0
048D  01DE  	CLRF CompTempVar2307
048E  0ADE  	INCF CompTempVar2307, F
048F  08CC  	MOVF gbl_FCV_GAMETIME_SEC, F
0490  1D03  	BTFSS STATUS,Z
0491  105E  	BCF CompTempVar2307,0
0492  085E  	MOVF CompTempVar2307, W
0493  05E0  	ANDWF CompTempVar2310, F
0494  01DF  	CLRF CompTempVar2309
0495  3009  	MOVLW 0x09
0496  0254  	SUBWF gbl_FCV_GAMETIME_MILLIS, W
0497  1903  	BTFSC STATUS,Z
0498  0ADF  	INCF CompTempVar2309, F
0499  085F  	MOVF CompTempVar2309, W
049A  0560  	ANDWF CompTempVar2310, W
049B  1D03  	BTFSS STATUS,Z
049C  01D4  	CLRF gbl_FCV_GAMETIME_MILLIS
049D  01E2  	CLRF CompTempVar2312
049E  0AE2  	INCF CompTempVar2312, F
049F  08CD  	MOVF gbl_FCV_GAMETIME_MIN, F
04A0  1D03  	BTFSS STATUS,Z
04A1  1062  	BCF CompTempVar2312,0
04A2  01E1  	CLRF CompTempVar2311
04A3  0855  	MOVF gbl_FCV_SHOTCLOCK, W
04A4  024C  	SUBWF gbl_FCV_GAMETIME_SEC, W
04A5  1C03  	BTFSS STATUS,C
04A6  0AE1  	INCF CompTempVar2311, F
04A7  0861  	MOVF CompTempVar2311, W
04A8  0562  	ANDWF CompTempVar2312, W
04A9  1903  	BTFSC STATUS,Z
04AA  2CAD  	GOTO	label92
04AB  084C  	MOVF gbl_FCV_GAMETIME_SEC, W
04AC  00D5  	MOVWF gbl_FCV_SHOTCLOCK
04AD        label92
04AD  01E4  	CLRF CompTempVar2314
04AE  0AE4  	INCF CompTempVar2314, F
04AF  08D5  	MOVF gbl_FCV_SHOTCLOCK, F
04B0  1D03  	BTFSS STATUS,Z
04B1  1064  	BCF CompTempVar2314,0
04B2  01E3  	CLRF CompTempVar2313
04B3  1E47  	BTFSS gbl_FCV_FLAG_TOG_BUZZ,4
04B4  0AE3  	INCF CompTempVar2313, F
04B5  0863  	MOVF CompTempVar2313, W
04B6  0564  	ANDWF CompTempVar2314, W
04B7  1903  	BTFSC STATUS,Z
04B8  0008  	RETURN
04B9  16CF  	BSF gbl_FCV_FLAG_BUZZER,5
04BA  01B9  	CLRF gbl_FCV_TIME_BUZZER_COUNTER
04BB  01BA  	CLRF gbl_FCV_TIME_BUZZER_COUNTER+D'1'
04BC  0008  	RETURN
04BD        ; } FCM_SB_conditions function end

	ORG 0x000004BD
04BD        FCM_Interr_00055
04BD        ; { FCM_Interrupt ; function begin
04BD  1283  	BCF STATUS, RP0
04BE  1303  	BCF STATUS, RP1
04BF  0848  	MOVF gbl_FCV_SCAN1, W
04C0  00D9  	MOVWF gbl_FCV_TEMP_SCAN1
04C1  084A  	MOVF gbl_FCV_SCAN2, W
04C2  00DA  	MOVWF gbl_FCV_TEMP_SCAN2
04C3  0851  	MOVF gbl_FCV_BUTTON_SCAN, W
04C4  3A01  	XORLW 0x01
04C5  1903  	BTFSC STATUS,Z
04C6  2CCE  	GOTO	label93
04C7  3A03  	XORLW 0x03
04C8  1903  	BTFSC STATUS,Z
04C9  2CD0  	GOTO	label94
04CA  3A01  	XORLW 0x01
04CB  1903  	BTFSC STATUS,Z
04CC  2CD2  	GOTO	label95
04CD  2CD3  	GOTO	label96
04CE        label93
04CE  22A5  	CALL FCM_btn_sc_00056
04CF  2CD3  	GOTO	label96
04D0        label94
04D0  226F  	CALL FCM_btn_sc_00057
04D1  2CD3  	GOTO	label96
04D2        label95
04D2  2237  	CALL FCM_btn_sc_00058
04D3        label96
04D3  0A51  	INCF gbl_FCV_BUTTON_SCAN, W
04D4  00D1  	MOVWF gbl_FCV_BUTTON_SCAN
04D5  3004  	MOVLW 0x04
04D6  0251  	SUBWF gbl_FCV_BUTTON_SCAN, W
04D7  1C03  	BTFSS STATUS,C
04D8  2CDB  	GOTO	label97
04D9  3001  	MOVLW 0x01
04DA  00D1  	MOVWF gbl_FCV_BUTTON_SCAN
04DB        label97
04DB  0859  	MOVF gbl_FCV_TEMP_SCAN1, W
04DC  00C8  	MOVWF gbl_FCV_SCAN1
04DD  085A  	MOVF gbl_FCV_TEMP_SCAN2, W
04DE  00CA  	MOVWF gbl_FCV_SCAN2
04DF  0008  	RETURN
04E0        ; } FCM_Interrupt function end

	ORG 0x000004E0
04E0        FCM_DISPLA_0005B
04E0        ; { FCM_DISPLAY_BLINKING ; function begin
04E0  1283  	BCF STATUS, RP0
04E1  1303  	BCF STATUS, RP1
04E2  1FCF  	BTFSS gbl_FCV_WINNER_AVAILABLE,7
04E3  2CE6  	GOTO	label98
04E4  3008  	MOVLW 0x08
04E5  00D7  	MOVWF gbl_FCV_TO_SET
04E6        label98
04E6  0A46  	INCF gbl_FCV_BLINK_COUNT, W
04E7  00C6  	MOVWF gbl_FCV_BLINK_COUNT
04E8  01DF  	CLRF CompTempVar2248
04E9  0846  	MOVF gbl_FCV_BLINK_COUNT, W
04EA  3C14  	SUBLW 0x14
04EB  1C03  	BTFSS STATUS,C
04EC  0ADF  	INCF CompTempVar2248, F
04ED  01DE  	CLRF CompTempVar2247
04EE  0357  	DECF gbl_FCV_TO_SET, W
04EF  1903  	BTFSC STATUS,Z
04F0  0ADE  	INCF CompTempVar2247, F
04F1  085E  	MOVF CompTempVar2247, W
04F2  055F  	ANDWF CompTempVar2248, W
04F3  1903  	BTFSC STATUS,Z
04F4  2D00  	GOTO	label99
04F5  0846  	MOVF gbl_FCV_BLINK_COUNT, W
04F6  3C28  	SUBLW 0x28
04F7  1C03  	BTFSS STATUS,C
04F8  01C6  	CLRF gbl_FCV_BLINK_COUNT
04F9  01C8  	CLRF gbl_FCV_SCAN1
04FA  3080  	MOVLW 0x80
04FB  00CA  	MOVWF gbl_FCV_SCAN2
04FC  30FF  	MOVLW 0xFF
04FD  00D8  	MOVWF gbl_FCV_TODISPLAY_SS
04FE  22DB  	CALL FCM_Displa_00054
04FF  2D30  	GOTO	label103
0500        label99
0500  01F5  	CLRF CompTempVar2274
0501  1CD6  	BTFSS gbl_FCV_FLAG_SETTIME,1
0502  0AF5  	INCF CompTempVar2274, F
0503  01F4  	CLRF CompTempVar2273
0504  0AF4  	INCF CompTempVar2273, F
0505  08CD  	MOVF gbl_FCV_GAMETIME_MIN, F
0506  1D03  	BTFSS STATUS,Z
0507  1074  	BCF CompTempVar2273,0
0508  0874  	MOVF CompTempVar2273, W
0509  0575  	ANDWF CompTempVar2274, W
050A  1903  	BTFSC STATUS,Z
050B  2D17  	GOTO	label100
050C  01C8  	CLRF gbl_FCV_SCAN1
050D  3080  	MOVLW 0x80
050E  00CA  	MOVWF gbl_FCV_SCAN2
050F  084C  	MOVF gbl_FCV_GAMETIME_SEC, W
0510  00FA  	MOVWF __div_8_8_00000_arg_a
0511  300A  	MOVLW 0x0A
0512  00FB  	MOVWF __div_8_8_00000_arg_b
0513  2226  	CALL __div_8_8_00000
0514  087E  	MOVF CompTempVarRet218, W
0515  00D8  	MOVWF gbl_FCV_TODISPLAY_SS
0516  2D21  	GOTO	label101
0517        label100
0517  01C8  	CLRF gbl_FCV_SCAN1
0518  3080  	MOVLW 0x80
0519  00CA  	MOVWF gbl_FCV_SCAN2
051A  084D  	MOVF gbl_FCV_GAMETIME_MIN, W
051B  00FA  	MOVWF __div_8_8_00000_arg_a
051C  300A  	MOVLW 0x0A
051D  00FB  	MOVWF __div_8_8_00000_arg_b
051E  2226  	CALL __div_8_8_00000
051F  087E  	MOVF CompTempVarRet218, W
0520  00D8  	MOVWF gbl_FCV_TODISPLAY_SS
0521        label101
0521  01F7  	CLRF CompTempVar2276
0522  0AF7  	INCF CompTempVar2276, F
0523  08D8  	MOVF gbl_FCV_TODISPLAY_SS, F
0524  1D03  	BTFSS STATUS,Z
0525  1077  	BCF CompTempVar2276,0
0526  01F6  	CLRF CompTempVar2275
0527  1CD6  	BTFSS gbl_FCV_FLAG_SETTIME,1
0528  0AF6  	INCF CompTempVar2275, F
0529  0876  	MOVF CompTempVar2275, W
052A  0577  	ANDWF CompTempVar2276, W
052B  1903  	BTFSC STATUS,Z
052C  2D2F  	GOTO	label102
052D  30FF  	MOVLW 0xFF
052E  00D8  	MOVWF gbl_FCV_TODISPLAY_SS
052F        label102
052F  22DB  	CALL FCM_Displa_00054
0530        label103
0530  01E1  	CLRF CompTempVar2250
0531  0846  	MOVF gbl_FCV_BLINK_COUNT, W
0532  3C14  	SUBLW 0x14
0533  1C03  	BTFSS STATUS,C
0534  0AE1  	INCF CompTempVar2250, F
0535  01E0  	CLRF CompTempVar2249
0536  3002  	MOVLW 0x02
0537  0257  	SUBWF gbl_FCV_TO_SET, W
0538  1903  	BTFSC STATUS,Z
0539  0AE0  	INCF CompTempVar2249, F
053A  0860  	MOVF CompTempVar2249, W
053B  0561  	ANDWF CompTempVar2250, W
053C  1903  	BTFSC STATUS,Z
053D  2D49  	GOTO	label104
053E  0846  	MOVF gbl_FCV_BLINK_COUNT, W
053F  3C28  	SUBLW 0x28
0540  1C03  	BTFSS STATUS,C
0541  01C6  	CLRF gbl_FCV_BLINK_COUNT
0542  01C8  	CLRF gbl_FCV_SCAN1
0543  3040  	MOVLW 0x40
0544  00CA  	MOVWF gbl_FCV_SCAN2
0545  30FF  	MOVLW 0xFF
0546  00D8  	MOVWF gbl_FCV_TODISPLAY_SS
0547  22DB  	CALL FCM_Displa_00054
0548  2D6B  	GOTO	label107
0549        label104
0549  01F5  	CLRF CompTempVar2278
054A  1CD6  	BTFSS gbl_FCV_FLAG_SETTIME,1
054B  0AF5  	INCF CompTempVar2278, F
054C  01F4  	CLRF CompTempVar2277
054D  0AF4  	INCF CompTempVar2277, F
054E  08CD  	MOVF gbl_FCV_GAMETIME_MIN, F
054F  1D03  	BTFSS STATUS,Z
0550  1074  	BCF CompTempVar2277,0
0551  0874  	MOVF CompTempVar2277, W
0552  0575  	ANDWF CompTempVar2278, W
0553  1903  	BTFSC STATUS,Z
0554  2D60  	GOTO	label105
0555  01C8  	CLRF gbl_FCV_SCAN1
0556  3040  	MOVLW 0x40
0557  00CA  	MOVWF gbl_FCV_SCAN2
0558  084C  	MOVF gbl_FCV_GAMETIME_SEC, W
0559  00F8  	MOVWF __rem_8_8_00000_arg_a
055A  300A  	MOVLW 0x0A
055B  00F9  	MOVWF __rem_8_8_00000_arg_b
055C  2215  	CALL __rem_8_8_00000
055D  087E  	MOVF CompTempVarRet220, W
055E  00D8  	MOVWF gbl_FCV_TODISPLAY_SS
055F  2D6A  	GOTO	label106
0560        label105
0560  01C8  	CLRF gbl_FCV_SCAN1
0561  3040  	MOVLW 0x40
0562  00CA  	MOVWF gbl_FCV_SCAN2
0563  084D  	MOVF gbl_FCV_GAMETIME_MIN, W
0564  00F8  	MOVWF __rem_8_8_00000_arg_a
0565  300A  	MOVLW 0x0A
0566  00F9  	MOVWF __rem_8_8_00000_arg_b
0567  2215  	CALL __rem_8_8_00000
0568  087E  	MOVF CompTempVarRet220, W
0569  00D8  	MOVWF gbl_FCV_TODISPLAY_SS
056A        label106
056A  22DB  	CALL FCM_Displa_00054
056B        label107
056B  01E3  	CLRF CompTempVar2252
056C  0846  	MOVF gbl_FCV_BLINK_COUNT, W
056D  3C14  	SUBLW 0x14
056E  1C03  	BTFSS STATUS,C
056F  0AE3  	INCF CompTempVar2252, F
0570  01E2  	CLRF CompTempVar2251
0571  3003  	MOVLW 0x03
0572  0257  	SUBWF gbl_FCV_TO_SET, W
0573  1903  	BTFSC STATUS,Z
0574  0AE2  	INCF CompTempVar2251, F
0575  0862  	MOVF CompTempVar2251, W
0576  0563  	ANDWF CompTempVar2252, W
0577  1903  	BTFSC STATUS,Z
0578  2D84  	GOTO	label108
0579  0846  	MOVF gbl_FCV_BLINK_COUNT, W
057A  3C28  	SUBLW 0x28
057B  1C03  	BTFSS STATUS,C
057C  01C6  	CLRF gbl_FCV_BLINK_COUNT
057D  01C8  	CLRF gbl_FCV_SCAN1
057E  3020  	MOVLW 0x20
057F  00CA  	MOVWF gbl_FCV_SCAN2
0580  30FF  	MOVLW 0xFF
0581  00D8  	MOVWF gbl_FCV_TODISPLAY_SS
0582  22DB  	CALL FCM_Displa_00054
0583  2DA1  	GOTO	label111
0584        label108
0584  01F5  	CLRF CompTempVar2280
0585  1CD6  	BTFSS gbl_FCV_FLAG_SETTIME,1
0586  0AF5  	INCF CompTempVar2280, F
0587  01F4  	CLRF CompTempVar2279
0588  0AF4  	INCF CompTempVar2279, F
0589  08CD  	MOVF gbl_FCV_GAMETIME_MIN, F
058A  1D03  	BTFSS STATUS,Z
058B  1074  	BCF CompTempVar2279,0
058C  0874  	MOVF CompTempVar2279, W
058D  0575  	ANDWF CompTempVar2280, W
058E  1903  	BTFSC STATUS,Z
058F  2D96  	GOTO	label109
0590  01C8  	CLRF gbl_FCV_SCAN1
0591  3020  	MOVLW 0x20
0592  00CA  	MOVWF gbl_FCV_SCAN2
0593  30FF  	MOVLW 0xFF
0594  00D8  	MOVWF gbl_FCV_TODISPLAY_SS
0595  2DA0  	GOTO	label110
0596        label109
0596  01C8  	CLRF gbl_FCV_SCAN1
0597  3020  	MOVLW 0x20
0598  00CA  	MOVWF gbl_FCV_SCAN2
0599  084C  	MOVF gbl_FCV_GAMETIME_SEC, W
059A  00FA  	MOVWF __div_8_8_00000_arg_a
059B  300A  	MOVLW 0x0A
059C  00FB  	MOVWF __div_8_8_00000_arg_b
059D  2226  	CALL __div_8_8_00000
059E  087E  	MOVF CompTempVarRet218, W
059F  00D8  	MOVWF gbl_FCV_TODISPLAY_SS
05A0        label110
05A0  22DB  	CALL FCM_Displa_00054
05A1        label111
05A1  01E5  	CLRF CompTempVar2254
05A2  0846  	MOVF gbl_FCV_BLINK_COUNT, W
05A3  3C14  	SUBLW 0x14
05A4  1C03  	BTFSS STATUS,C
05A5  0AE5  	INCF CompTempVar2254, F
05A6  01E4  	CLRF CompTempVar2253
05A7  3004  	MOVLW 0x04
05A8  0257  	SUBWF gbl_FCV_TO_SET, W
05A9  1903  	BTFSC STATUS,Z
05AA  0AE4  	INCF CompTempVar2253, F
05AB  0864  	MOVF CompTempVar2253, W
05AC  0565  	ANDWF CompTempVar2254, W
05AD  1903  	BTFSC STATUS,Z
05AE  2DBA  	GOTO	label112
05AF  0846  	MOVF gbl_FCV_BLINK_COUNT, W
05B0  3C28  	SUBLW 0x28
05B1  1C03  	BTFSS STATUS,C
05B2  01C6  	CLRF gbl_FCV_BLINK_COUNT
05B3  01C8  	CLRF gbl_FCV_SCAN1
05B4  3010  	MOVLW 0x10
05B5  00CA  	MOVWF gbl_FCV_SCAN2
05B6  30FF  	MOVLW 0xFF
05B7  00D8  	MOVWF gbl_FCV_TODISPLAY_SS
05B8  22DB  	CALL FCM_Displa_00054
05B9  2DD7  	GOTO	label115
05BA        label112
05BA  01F5  	CLRF CompTempVar2282
05BB  1CD6  	BTFSS gbl_FCV_FLAG_SETTIME,1
05BC  0AF5  	INCF CompTempVar2282, F
05BD  01F4  	CLRF CompTempVar2281
05BE  0AF4  	INCF CompTempVar2281, F
05BF  08CD  	MOVF gbl_FCV_GAMETIME_MIN, F
05C0  1D03  	BTFSS STATUS,Z
05C1  1074  	BCF CompTempVar2281,0
05C2  0874  	MOVF CompTempVar2281, W
05C3  0575  	ANDWF CompTempVar2282, W
05C4  1903  	BTFSC STATUS,Z
05C5  2DCC  	GOTO	label113
05C6  01C8  	CLRF gbl_FCV_SCAN1
05C7  3010  	MOVLW 0x10
05C8  00CA  	MOVWF gbl_FCV_SCAN2
05C9  0854  	MOVF gbl_FCV_GAMETIME_MILLIS, W
05CA  00D8  	MOVWF gbl_FCV_TODISPLAY_SS
05CB  2DD6  	GOTO	label114
05CC        label113
05CC  01C8  	CLRF gbl_FCV_SCAN1
05CD  3010  	MOVLW 0x10
05CE  00CA  	MOVWF gbl_FCV_SCAN2
05CF  084C  	MOVF gbl_FCV_GAMETIME_SEC, W
05D0  00F8  	MOVWF __rem_8_8_00000_arg_a
05D1  300A  	MOVLW 0x0A
05D2  00F9  	MOVWF __rem_8_8_00000_arg_b
05D3  2215  	CALL __rem_8_8_00000
05D4  087E  	MOVF CompTempVarRet220, W
05D5  00D8  	MOVWF gbl_FCV_TODISPLAY_SS
05D6        label114
05D6  22DB  	CALL FCM_Displa_00054
05D7        label115
05D7  01E7  	CLRF CompTempVar2256
05D8  0846  	MOVF gbl_FCV_BLINK_COUNT, W
05D9  3C14  	SUBLW 0x14
05DA  1C03  	BTFSS STATUS,C
05DB  0AE7  	INCF CompTempVar2256, F
05DC  01E6  	CLRF CompTempVar2255
05DD  3005  	MOVLW 0x05
05DE  0257  	SUBWF gbl_FCV_TO_SET, W
05DF  1903  	BTFSC STATUS,Z
05E0  0AE6  	INCF CompTempVar2255, F
05E1  0866  	MOVF CompTempVar2255, W
05E2  0567  	ANDWF CompTempVar2256, W
05E3  1903  	BTFSC STATUS,Z
05E4  2DF0  	GOTO	label116
05E5  0846  	MOVF gbl_FCV_BLINK_COUNT, W
05E6  3C28  	SUBLW 0x28
05E7  1C03  	BTFSS STATUS,C
05E8  01C6  	CLRF gbl_FCV_BLINK_COUNT
05E9  3010  	MOVLW 0x10
05EA  00C8  	MOVWF gbl_FCV_SCAN1
05EB  01CA  	CLRF gbl_FCV_SCAN2
05EC  30FF  	MOVLW 0xFF
05ED  00D8  	MOVWF gbl_FCV_TODISPLAY_SS
05EE  22DB  	CALL FCM_Displa_00054
05EF  2E25  	GOTO	label119
05F0        label116
05F0  3010  	MOVLW 0x10
05F1  00C8  	MOVWF gbl_FCV_SCAN1
05F2  01CA  	CLRF gbl_FCV_SCAN2
05F3  0855  	MOVF gbl_FCV_SHOTCLOCK, W
05F4  00FA  	MOVWF __div_8_8_00000_arg_a
05F5  300A  	MOVLW 0x0A
05F6  00FB  	MOVWF __div_8_8_00000_arg_b
05F7  2226  	CALL __div_8_8_00000
05F8  087E  	MOVF CompTempVarRet218, W
05F9  00D8  	MOVWF gbl_FCV_TODISPLAY_SS
05FA  01F5  	CLRF CompTempVar2284
05FB  0AF5  	INCF CompTempVar2284, F
05FC  08D8  	MOVF gbl_FCV_TODISPLAY_SS, F
05FD  1D03  	BTFSS STATUS,Z
05FE  1075  	BCF CompTempVar2284,0
05FF  01F4  	CLRF CompTempVar2283
0600  1CD6  	BTFSS gbl_FCV_FLAG_SETTIME,1
0601  0AF4  	INCF CompTempVar2283, F
0602  0874  	MOVF CompTempVar2283, W
0603  0575  	ANDWF CompTempVar2284, W
0604  1903  	BTFSC STATUS,Z
0605  2E08  	GOTO	label117
0606  30FF  	MOVLW 0xFF
0607  00D8  	MOVWF gbl_FCV_TODISPLAY_SS
0608        label117
0608  01F9  	CLRF CompTempVar2290
0609  1CD6  	BTFSS gbl_FCV_FLAG_SETTIME,1
060A  0AF9  	INCF CompTempVar2290, F
060B  01F6  	CLRF CompTempVar2285
060C  0AF6  	INCF CompTempVar2285, F
060D  08CD  	MOVF gbl_FCV_GAMETIME_MIN, F
060E  1D03  	BTFSS STATUS,Z
060F  1076  	BCF CompTempVar2285,0
0610  0876  	MOVF CompTempVar2285, W
0611  05F9  	ANDWF CompTempVar2290, F
0612  01F7  	CLRF CompTempVar2287
0613  3018  	MOVLW 0x18
0614  024C  	SUBWF gbl_FCV_GAMETIME_SEC, W
0615  1C03  	BTFSS STATUS,C
0616  0AF7  	INCF CompTempVar2287, F
0617  0877  	MOVF CompTempVar2287, W
0618  05F9  	ANDWF CompTempVar2290, F
0619  01F8  	CLRF CompTempVar2289
061A  084C  	MOVF gbl_FCV_GAMETIME_SEC, W
061B  0255  	SUBWF gbl_FCV_SHOTCLOCK, W
061C  1803  	BTFSC STATUS,C
061D  0AF8  	INCF CompTempVar2289, F
061E  0878  	MOVF CompTempVar2289, W
061F  0579  	ANDWF CompTempVar2290, W
0620  1903  	BTFSC STATUS,Z
0621  2E24  	GOTO	label118
0622  30FF  	MOVLW 0xFF
0623  00D8  	MOVWF gbl_FCV_TODISPLAY_SS
0624        label118
0624  22DB  	CALL FCM_Displa_00054
0625        label119
0625  01E9  	CLRF CompTempVar2258
0626  0846  	MOVF gbl_FCV_BLINK_COUNT, W
0627  3C14  	SUBLW 0x14
0628  1C03  	BTFSS STATUS,C
0629  0AE9  	INCF CompTempVar2258, F
062A  01E8  	CLRF CompTempVar2257
062B  3006  	MOVLW 0x06
062C  0257  	SUBWF gbl_FCV_TO_SET, W
062D  1903  	BTFSC STATUS,Z
062E  0AE8  	INCF CompTempVar2257, F
062F  0868  	MOVF CompTempVar2257, W
0630  0569  	ANDWF CompTempVar2258, W
0631  1903  	BTFSC STATUS,Z
0632  2E3E  	GOTO	label120
0633  0846  	MOVF gbl_FCV_BLINK_COUNT, W
0634  3C28  	SUBLW 0x28
0635  1C03  	BTFSS STATUS,C
0636  01C6  	CLRF gbl_FCV_BLINK_COUNT
0637  3008  	MOVLW 0x08
0638  00C8  	MOVWF gbl_FCV_SCAN1
0639  01CA  	CLRF gbl_FCV_SCAN2
063A  30FF  	MOVLW 0xFF
063B  00D8  	MOVWF gbl_FCV_TODISPLAY_SS
063C  22DB  	CALL FCM_Displa_00054
063D  2E65  	GOTO	label122
063E        label120
063E  3008  	MOVLW 0x08
063F  00C8  	MOVWF gbl_FCV_SCAN1
0640  01CA  	CLRF gbl_FCV_SCAN2
0641  0855  	MOVF gbl_FCV_SHOTCLOCK, W
0642  00F8  	MOVWF __rem_8_8_00000_arg_a
0643  300A  	MOVLW 0x0A
0644  00F9  	MOVWF __rem_8_8_00000_arg_b
0645  2215  	CALL __rem_8_8_00000
0646  087E  	MOVF CompTempVarRet220, W
0647  00D8  	MOVWF gbl_FCV_TODISPLAY_SS
0648  01F7  	CLRF CompTempVar2296
0649  1CD6  	BTFSS gbl_FCV_FLAG_SETTIME,1
064A  0AF7  	INCF CompTempVar2296, F
064B  01F4  	CLRF CompTempVar2291
064C  0AF4  	INCF CompTempVar2291, F
064D  08CD  	MOVF gbl_FCV_GAMETIME_MIN, F
064E  1D03  	BTFSS STATUS,Z
064F  1074  	BCF CompTempVar2291,0
0650  0874  	MOVF CompTempVar2291, W
0651  05F7  	ANDWF CompTempVar2296, F
0652  01F5  	CLRF CompTempVar2293
0653  3018  	MOVLW 0x18
0654  024C  	SUBWF gbl_FCV_GAMETIME_SEC, W
0655  1C03  	BTFSS STATUS,C
0656  0AF5  	INCF CompTempVar2293, F
0657  0875  	MOVF CompTempVar2293, W
0658  05F7  	ANDWF CompTempVar2296, F
0659  01F6  	CLRF CompTempVar2295
065A  084C  	MOVF gbl_FCV_GAMETIME_SEC, W
065B  0255  	SUBWF gbl_FCV_SHOTCLOCK, W
065C  1803  	BTFSC STATUS,C
065D  0AF6  	INCF CompTempVar2295, F
065E  0876  	MOVF CompTempVar2295, W
065F  0577  	ANDWF CompTempVar2296, W
0660  1903  	BTFSC STATUS,Z
0661  2E64  	GOTO	label121
0662  30FF  	MOVLW 0xFF
0663  00D8  	MOVWF gbl_FCV_TODISPLAY_SS
0664        label121
0664  22DB  	CALL FCM_Displa_00054
0665        label122
0665  01EB  	CLRF CompTempVar2260
0666  0846  	MOVF gbl_FCV_BLINK_COUNT, W
0667  3C14  	SUBLW 0x14
0668  1C03  	BTFSS STATUS,C
0669  0AEB  	INCF CompTempVar2260, F
066A  01EA  	CLRF CompTempVar2259
066B  3007  	MOVLW 0x07
066C  0257  	SUBWF gbl_FCV_TO_SET, W
066D  1903  	BTFSC STATUS,Z
066E  0AEA  	INCF CompTempVar2259, F
066F  086A  	MOVF CompTempVar2259, W
0670  056B  	ANDWF CompTempVar2260, W
0671  1903  	BTFSC STATUS,Z
0672  2E7E  	GOTO	label123
0673  0846  	MOVF gbl_FCV_BLINK_COUNT, W
0674  3C28  	SUBLW 0x28
0675  1C03  	BTFSS STATUS,C
0676  01C6  	CLRF gbl_FCV_BLINK_COUNT
0677  3004  	MOVLW 0x04
0678  00C8  	MOVWF gbl_FCV_SCAN1
0679  01CA  	CLRF gbl_FCV_SCAN2
067A  30FF  	MOVLW 0xFF
067B  00D8  	MOVWF gbl_FCV_TODISPLAY_SS
067C  22DB  	CALL FCM_Displa_00054
067D  2E8A  	GOTO	label125
067E        label123
067E  3004  	MOVLW 0x04
067F  00C8  	MOVWF gbl_FCV_SCAN1
0680  01CA  	CLRF gbl_FCV_SCAN2
0681  084B  	MOVF gbl_FCV_PERIOD, W
0682  00D8  	MOVWF gbl_FCV_TODISPLAY_SS
0683  084B  	MOVF gbl_FCV_PERIOD, W
0684  3A05  	XORLW 0x05
0685  1D03  	BTFSS STATUS,Z
0686  2E89  	GOTO	label124
0687  300B  	MOVLW 0x0B
0688  00D8  	MOVWF gbl_FCV_TODISPLAY_SS
0689        label124
0689  22DB  	CALL FCM_Displa_00054
068A        label125
068A  01EF  	CLRF CompTempVar2266
068B  1BCF  	BTFSC gbl_FCV_WINNER_AVAILABLE,7
068C  0AEF  	INCF CompTempVar2266, F
068D  01EC  	CLRF CompTempVar2261
068E  1DD6  	BTFSS gbl_FCV_WINNER,3
068F  0AEC  	INCF CompTempVar2261, F
0690  086C  	MOVF CompTempVar2261, W
0691  05EF  	ANDWF CompTempVar2266, F
0692  01ED  	CLRF CompTempVar2263
0693  0846  	MOVF gbl_FCV_BLINK_COUNT, W
0694  3C14  	SUBLW 0x14
0695  1C03  	BTFSS STATUS,C
0696  0AED  	INCF CompTempVar2263, F
0697  086D  	MOVF CompTempVar2263, W
0698  05EF  	ANDWF CompTempVar2266, F
0699  01EE  	CLRF CompTempVar2265
069A  3008  	MOVLW 0x08
069B  0257  	SUBWF gbl_FCV_TO_SET, W
069C  1903  	BTFSC STATUS,Z
069D  0AEE  	INCF CompTempVar2265, F
069E  086E  	MOVF CompTempVar2265, W
069F  056F  	ANDWF CompTempVar2266, W
06A0  1903  	BTFSC STATUS,Z
06A1  2EB9  	GOTO	label126
06A2  0846  	MOVF gbl_FCV_BLINK_COUNT, W
06A3  3C28  	SUBLW 0x28
06A4  1C03  	BTFSS STATUS,C
06A5  01C6  	CLRF gbl_FCV_BLINK_COUNT
06A6  01C8  	CLRF gbl_FCV_SCAN1
06A7  3008  	MOVLW 0x08
06A8  00CA  	MOVWF gbl_FCV_SCAN2
06A9  30FF  	MOVLW 0xFF
06AA  00D8  	MOVWF gbl_FCV_TODISPLAY_SS
06AB  22DB  	CALL FCM_Displa_00054
06AC  01C8  	CLRF gbl_FCV_SCAN1
06AD  3004  	MOVLW 0x04
06AE  00CA  	MOVWF gbl_FCV_SCAN2
06AF  30FF  	MOVLW 0xFF
06B0  00D8  	MOVWF gbl_FCV_TODISPLAY_SS
06B1  22DB  	CALL FCM_Displa_00054
06B2  01C8  	CLRF gbl_FCV_SCAN1
06B3  3002  	MOVLW 0x02
06B4  00CA  	MOVWF gbl_FCV_SCAN2
06B5  30FF  	MOVLW 0xFF
06B6  00D8  	MOVWF gbl_FCV_TODISPLAY_SS
06B7  22DB  	CALL FCM_Displa_00054
06B8  2EF4  	GOTO	label129
06B9        label126
06B9  01C8  	CLRF gbl_FCV_SCAN1
06BA  3008  	MOVLW 0x08
06BB  00CA  	MOVWF gbl_FCV_SCAN2
06BC  0852  	MOVF gbl_FCV_HOMESCORE, W
06BD  00FA  	MOVWF __div_8_8_00000_arg_a
06BE  3064  	MOVLW 0x64
06BF  00FB  	MOVWF __div_8_8_00000_arg_b
06C0  2226  	CALL __div_8_8_00000
06C1  087E  	MOVF CompTempVarRet218, W
06C2  00D8  	MOVWF gbl_FCV_TODISPLAY_SS
06C3  08D8  	MOVF gbl_FCV_TODISPLAY_SS, F
06C4  1D03  	BTFSS STATUS,Z
06C5  2EC8  	GOTO	label127
06C6  30FF  	MOVLW 0xFF
06C7  00D8  	MOVWF gbl_FCV_TODISPLAY_SS
06C8        label127
06C8  22DB  	CALL FCM_Displa_00054
06C9  01C8  	CLRF gbl_FCV_SCAN1
06CA  3004  	MOVLW 0x04
06CB  00CA  	MOVWF gbl_FCV_SCAN2
06CC  0852  	MOVF gbl_FCV_HOMESCORE, W
06CD  00F8  	MOVWF __rem_8_8_00000_arg_a
06CE  3064  	MOVLW 0x64
06CF  00F9  	MOVWF __rem_8_8_00000_arg_b
06D0  2215  	CALL __rem_8_8_00000
06D1  087E  	MOVF CompTempVarRet220, W
06D2  00FA  	MOVWF __div_8_8_00000_arg_a
06D3  300A  	MOVLW 0x0A
06D4  00FB  	MOVWF __div_8_8_00000_arg_b
06D5  2226  	CALL __div_8_8_00000
06D6  087E  	MOVF CompTempVarRet218, W
06D7  00D8  	MOVWF gbl_FCV_TODISPLAY_SS
06D8  01F5  	CLRF CompTempVar2298
06D9  0AF5  	INCF CompTempVar2298, F
06DA  08D8  	MOVF gbl_FCV_TODISPLAY_SS, F
06DB  1D03  	BTFSS STATUS,Z
06DC  1075  	BCF CompTempVar2298,0
06DD  01F4  	CLRF CompTempVar2297
06DE  3064  	MOVLW 0x64
06DF  0252  	SUBWF gbl_FCV_HOMESCORE, W
06E0  1C03  	BTFSS STATUS,C
06E1  0AF4  	INCF CompTempVar2297, F
06E2  0874  	MOVF CompTempVar2297, W
06E3  0575  	ANDWF CompTempVar2298, W
06E4  1903  	BTFSC STATUS,Z
06E5  2EE8  	GOTO	label128
06E6  30FF  	MOVLW 0xFF
06E7  00D8  	MOVWF gbl_FCV_TODISPLAY_SS
06E8        label128
06E8  22DB  	CALL FCM_Displa_00054
06E9  01C8  	CLRF gbl_FCV_SCAN1
06EA  3002  	MOVLW 0x02
06EB  00CA  	MOVWF gbl_FCV_SCAN2
06EC  0852  	MOVF gbl_FCV_HOMESCORE, W
06ED  00F8  	MOVWF __rem_8_8_00000_arg_a
06EE  300A  	MOVLW 0x0A
06EF  00F9  	MOVWF __rem_8_8_00000_arg_b
06F0  2215  	CALL __rem_8_8_00000
06F1  087E  	MOVF CompTempVarRet220, W
06F2  00D8  	MOVWF gbl_FCV_TODISPLAY_SS
06F3  22DB  	CALL FCM_Displa_00054
06F4        label129
06F4  01F3  	CLRF CompTempVar2272
06F5  1BCF  	BTFSC gbl_FCV_WINNER_AVAILABLE,7
06F6  0AF3  	INCF CompTempVar2272, F
06F7  01F0  	CLRF CompTempVar2267
06F8  19D6  	BTFSC gbl_FCV_WINNER,3
06F9  0AF0  	INCF CompTempVar2267, F
06FA  0870  	MOVF CompTempVar2267, W
06FB  05F3  	ANDWF CompTempVar2272, F
06FC  01F1  	CLRF CompTempVar2269
06FD  0846  	MOVF gbl_FCV_BLINK_COUNT, W
06FE  3C14  	SUBLW 0x14
06FF  1C03  	BTFSS STATUS,C
0700  0AF1  	INCF CompTempVar2269, F
0701  0871  	MOVF CompTempVar2269, W
0702  05F3  	ANDWF CompTempVar2272, F
0703  01F2  	CLRF CompTempVar2271
0704  3008  	MOVLW 0x08
0705  0257  	SUBWF gbl_FCV_TO_SET, W
0706  1903  	BTFSC STATUS,Z
0707  0AF2  	INCF CompTempVar2271, F
0708  0872  	MOVF CompTempVar2271, W
0709  0573  	ANDWF CompTempVar2272, W
070A  1903  	BTFSC STATUS,Z
070B  2F23  	GOTO	label130
070C  0846  	MOVF gbl_FCV_BLINK_COUNT, W
070D  3C28  	SUBLW 0x28
070E  1C03  	BTFSS STATUS,C
070F  01C6  	CLRF gbl_FCV_BLINK_COUNT
0710  01C8  	CLRF gbl_FCV_SCAN1
0711  3001  	MOVLW 0x01
0712  00CA  	MOVWF gbl_FCV_SCAN2
0713  30FF  	MOVLW 0xFF
0714  00D8  	MOVWF gbl_FCV_TODISPLAY_SS
0715  22DB  	CALL FCM_Displa_00054
0716  3080  	MOVLW 0x80
0717  00C8  	MOVWF gbl_FCV_SCAN1
0718  01CA  	CLRF gbl_FCV_SCAN2
0719  30FF  	MOVLW 0xFF
071A  00D8  	MOVWF gbl_FCV_TODISPLAY_SS
071B  22DB  	CALL FCM_Displa_00054
071C  3040  	MOVLW 0x40
071D  00C8  	MOVWF gbl_FCV_SCAN1
071E  01CA  	CLRF gbl_FCV_SCAN2
071F  30FF  	MOVLW 0xFF
0720  00D8  	MOVWF gbl_FCV_TODISPLAY_SS
0721  22DB  	CALL FCM_Displa_00054
0722  0008  	RETURN
0723        label130
0723  01C8  	CLRF gbl_FCV_SCAN1
0724  3001  	MOVLW 0x01
0725  00CA  	MOVWF gbl_FCV_SCAN2
0726  0850  	MOVF gbl_FCV_GUESTSCORE, W
0727  00FA  	MOVWF __div_8_8_00000_arg_a
0728  3064  	MOVLW 0x64
0729  00FB  	MOVWF __div_8_8_00000_arg_b
072A  2226  	CALL __div_8_8_00000
072B  087E  	MOVF CompTempVarRet218, W
072C  00D8  	MOVWF gbl_FCV_TODISPLAY_SS
072D  08D8  	MOVF gbl_FCV_TODISPLAY_SS, F
072E  1D03  	BTFSS STATUS,Z
072F  2F32  	GOTO	label131
0730  30FF  	MOVLW 0xFF
0731  00D8  	MOVWF gbl_FCV_TODISPLAY_SS
0732        label131
0732  22DB  	CALL FCM_Displa_00054
0733  3080  	MOVLW 0x80
0734  00C8  	MOVWF gbl_FCV_SCAN1
0735  01CA  	CLRF gbl_FCV_SCAN2
0736  0850  	MOVF gbl_FCV_GUESTSCORE, W
0737  00F8  	MOVWF __rem_8_8_00000_arg_a
0738  3064  	MOVLW 0x64
0739  00F9  	MOVWF __rem_8_8_00000_arg_b
073A  2215  	CALL __rem_8_8_00000
073B  087E  	MOVF CompTempVarRet220, W
073C  00FA  	MOVWF __div_8_8_00000_arg_a
073D  300A  	MOVLW 0x0A
073E  00FB  	MOVWF __div_8_8_00000_arg_b
073F  2226  	CALL __div_8_8_00000
0740  087E  	MOVF CompTempVarRet218, W
0741  00D8  	MOVWF gbl_FCV_TODISPLAY_SS
0742  01F5  	CLRF CompTempVar2300
0743  0AF5  	INCF CompTempVar2300, F
0744  08D8  	MOVF gbl_FCV_TODISPLAY_SS, F
0745  1D03  	BTFSS STATUS,Z
0746  1075  	BCF CompTempVar2300,0
0747  01F4  	CLRF CompTempVar2299
0748  3064  	MOVLW 0x64
0749  0250  	SUBWF gbl_FCV_GUESTSCORE, W
074A  1C03  	BTFSS STATUS,C
074B  0AF4  	INCF CompTempVar2299, F
074C  0874  	MOVF CompTempVar2299, W
074D  0575  	ANDWF CompTempVar2300, W
074E  1903  	BTFSC STATUS,Z
074F  2F52  	GOTO	label132
0750  30FF  	MOVLW 0xFF
0751  00D8  	MOVWF gbl_FCV_TODISPLAY_SS
0752        label132
0752  22DB  	CALL FCM_Displa_00054
0753  3040  	MOVLW 0x40
0754  00C8  	MOVWF gbl_FCV_SCAN1
0755  01CA  	CLRF gbl_FCV_SCAN2
0756  0850  	MOVF gbl_FCV_GUESTSCORE, W
0757  00F8  	MOVWF __rem_8_8_00000_arg_a
0758  300A  	MOVLW 0x0A
0759  00F9  	MOVWF __rem_8_8_00000_arg_b
075A  2215  	CALL __rem_8_8_00000
075B  087E  	MOVF CompTempVarRet220, W
075C  00D8  	MOVWF gbl_FCV_TODISPLAY_SS
075D  22DB  	CALL FCM_Displa_00054
075E  0008  	RETURN
075F        ; } FCM_DISPLAY_BLINKING function end

	ORG 0x0000075F
075F        main
075F        ; { main ; function begin
075F  3007  	MOVLW 0x07
0760  1283  	BCF STATUS, RP0
0761  1303  	BCF STATUS, RP1
0762  009F  	MOVWF gbl_cmcon
0763  30C0  	MOVLW 0xC0
0764  1683  	BSF STATUS, RP0
0765  0081  	MOVWF gbl_option_reg
0766  170B  	BSF gbl_intcon,6
0767  1283  	BCF STATUS, RP0
0768  1012  	BCF gbl_t2con,0
0769  1492  	BSF gbl_t2con,1
076A  1512  	BSF gbl_t2con,2
076B  3007  	MOVLW 0x07
076C  0512  	ANDWF gbl_t2con, W
076D  00DE  	MOVWF CompTempVar2315
076E  3078  	MOVLW 0x78
076F  045E  	IORWF CompTempVar2315, W
0770  0092  	MOVWF gbl_t2con
0771  300F  	MOVLW 0x0F
0772  1683  	BSF STATUS, RP0
0773  0092  	MOVWF gbl_pr2
0774  178B  	BSF gbl_intcon,7
0775  148C  	BSF gbl_pie1,1
0776  2471  	CALL FCM_VARIAB_0005E
0777  01DB  	CLRF gbl_FCLV_LOOP1
0778        label133
0778  3064  	MOVLW 0x64
0779  025B  	SUBWF gbl_FCLV_LOOP1, W
077A  1803  	BTFSC STATUS,C
077B  2F80  	GOTO	label134
077C  24E0  	CALL FCM_DISPLA_0005B
077D  24BD  	CALL FCM_Interr_00055
077E  0ADB  	INCF gbl_FCLV_LOOP1, F
077F  2F78  	GOTO	label133
0780        label134
0780  1CD6  	BTFSS gbl_FCV_FLAG_SETTIME,1
0781  2F86  	GOTO	label135
0782  24E0  	CALL FCM_DISPLA_0005B
0783  24BD  	CALL FCM_Interr_00055
0784  22E8  	CALL FCM_button_0005C
0785  2F8C  	GOTO	label136
0786        label135
0786  3008  	MOVLW 0x08
0787  00D7  	MOVWF gbl_FCV_TO_SET
0788  24E0  	CALL FCM_DISPLA_0005B
0789  24BD  	CALL FCM_Interr_00055
078A  23A5  	CALL FCM_button_00059
078B  2486  	CALL FCM_SB_con_0005D
078C        label136
078C  1BC7  	BTFSC gbl_FCV_NEW_GAME,7
078D  2471  	CALL FCM_VARIAB_0005E
078E  2F80  	GOTO	label134
078F        ; } main function end

	ORG 0x0000078F
078F        _startup
078F  30D5  	MOVLW 0xD5
0790  1283  	BCF STATUS, RP0
0791  1303  	BCF STATUS, RP1
0792  00A0  	MOVWF gbl_14_LSR
0793  30C4  	MOVLW 0xC4
0794  00A1  	MOVWF gbl_14_LSR+D'1'
0795  30BB  	MOVLW 0xBB
0796  00A2  	MOVWF gbl_14_LSR+D'2'
0797  30DC  	MOVLW 0xDC
0798  00A3  	MOVWF gbl_14_LSR+D'3'
0799  01A4  	CLRF gbl_15_gbl_aSig
079A  01A5  	CLRF gbl_15_gbl_aSig+D'1'
079B  01A6  	CLRF gbl_15_gbl_aSig+D'2'
079C  01A7  	CLRF gbl_15_gbl_aSig+D'3'
079D  01A8  	CLRF gbl_15_gbl_bSig
079E  01A9  	CLRF gbl_15_gbl_bSig+D'1'
079F  01AA  	CLRF gbl_15_gbl_bSig+D'2'
07A0  01AB  	CLRF gbl_15_gbl_bSig+D'3'
07A1  01AC  	CLRF gbl_15_gbl_zSig
07A2  01AD  	CLRF gbl_15_gbl_zSig+D'1'
07A3  01AE  	CLRF gbl_15_gbl_zSig+D'2'
07A4  01AF  	CLRF gbl_15_gbl_zSig+D'3'
07A5  01C0  	CLRF gbl_15_gbl_aExp
07A6  01C1  	CLRF gbl_15_gbl_bExp
07A7  01B7  	CLRF gbl_15_gbl_zExp
07A8  01B8  	CLRF gbl_15_gbl_zExp+D'1'
07A9  01C2  	CLRF gbl_15_gbl_aSign
07AA  01C3  	CLRF gbl_15_gbl_bSign
07AB  01C4  	CLRF gbl_15_gbl_zSign
07AC  01C5  	CLRF gbl_15_gbl_zSigZero
07AD  01B0  	CLRF gbl_15_gbl_ret
07AE  01B1  	CLRF gbl_15_gbl_ret+D'1'
07AF  01B2  	CLRF gbl_15_gbl_ret+D'2'
07B0  01B3  	CLRF gbl_15_gbl_ret+D'3'
07B1  01BE  	CLRF gbl_float_rounding_mode
07B2  01BF  	CLRF gbl_float_exception_flags
07B3  01BD  	CLRF gbl_float_detect_tininess
07B4  01C6  	CLRF gbl_FCV_BLINK_COUNT
07B5  1447  	BSF gbl_FCV_BTN_SHIFT,0
07B6  14C7  	BSF gbl_FCV_BTN_HOME,1
07B7  1147  	BCF gbl_FCV_TOGGLE_SHOTCLOCK,2
07B8  30FF  	MOVLW 0xFF
07B9  00C8  	MOVWF gbl_FCV_SCAN1
07BA  3001  	MOVLW 0x01
07BB  00C9  	MOVWF gbl_FCV_BTN_SHOTCLOCK
07BC  30FF  	MOVLW 0xFF
07BD  00CA  	MOVWF gbl_FCV_SCAN2
07BE  11C7  	BCF gbl_FCV_DAT,3
07BF  1247  	BCF gbl_FCV_FLAG_TOG_BUZZ,4
07C0  12C7  	BCF gbl_FCV_TOGGLE_GUEST,5
07C1  3001  	MOVLW 0x01
07C2  00CB  	MOVWF gbl_FCV_PERIOD
07C3  300A  	MOVLW 0x0A
07C4  00CD  	MOVWF gbl_FCV_GAMETIME_MIN
07C5  1347  	BCF gbl_FCV_TOGGLE_STARTSTOP,6
07C6  30FF  	MOVLW 0xFF
07C7  00CE  	MOVWF gbl_FCV_DISPLAY_SEVENSEG
07C8  13C7  	BCF gbl_FCV_NEW_GAME,7
07C9  104F  	BCF gbl_FCV_TOGGLE_HOME,0
07CA  10CF  	BCF gbl_FCV_SHIFTING,1
07CB  154F  	BSF gbl_FCV_SWITCH4,2
07CC  15CF  	BSF gbl_FCV_BTN_STARTSTOP,3
07CD  01D0  	CLRF gbl_FCV_GUESTSCORE
07CE  164F  	BSF gbl_FCV_SWITCH5,4
07CF  12CF  	BCF gbl_FCV_FLAG_BUZZER,5
07D0  01D1  	CLRF gbl_FCV_BUTTON_SCAN
07D1  01D2  	CLRF gbl_FCV_HOMESCORE
07D2  174F  	BSF gbl_FCV_BTN_GUEST,6
07D3  01D3  	CLRF gbl_FCV_TEMP_VAR
07D4  01D4  	CLRF gbl_FCV_GAMETIME_MILLIS
07D5  13CF  	BCF gbl_FCV_WINNER_AVAILABLE,7
07D6  01BB  	CLRF gbl_FCV_TIME_COUNTER
07D7  01BC  	CLRF gbl_FCV_TIME_COUNTER+D'1'
07D8  3018  	MOVLW 0x18
07D9  00D5  	MOVWF gbl_FCV_SHOTCLOCK
07DA  1056  	BCF gbl_FCV_FLAG_STARTSTOP,0
07DB  01D7  	CLRF gbl_FCV_TO_SET
07DC  30FF  	MOVLW 0xFF
07DD  00D8  	MOVWF gbl_FCV_TODISPLAY_SS
07DE  01D9  	CLRF gbl_FCV_TEMP_SCAN1
07DF  10D6  	BCF gbl_FCV_FLAG_SETTIME,1
07E0  01DA  	CLRF gbl_FCV_TEMP_SCAN2
07E1  1556  	BSF gbl_FCV_BTN_BUZZER,2
07E2  11D6  	BCF gbl_FCV_WINNER,3
07E3  118A  	BCF PCLATH,3
07E4  120A  	BCF PCLATH,4
07E5  2F5F  	GOTO	main
	ORG 0x000007E6
07E6        interrupt
07E6        ; { interrupt ; function begin
07E6  1283  	BCF STATUS, RP0
07E7  1303  	BCF STATUS, RP1
07E8  1C8C  	BTFSS gbl_pir1,1
07E9  2FEF  	GOTO	label138
07EA  1683  	BSF STATUS, RP0
07EB  1C8C  	BTFSS gbl_pie1,1
07EC  2FEF  	GOTO	label138
07ED  2015  	CALL FCM_TIMEKE_0005A
07EE  108C  	BCF gbl_pir1,1
07EF        label138
07EF  1283  	BCF STATUS, RP0
07F0  0E36  	SWAPF Int1BContext+D'2', W
07F1  0084  	MOVWF FSR
07F2  0E35  	SWAPF Int1BContext+D'1', W
07F3  008A  	MOVWF PCLATH
07F4  0E34  	SWAPF Int1BContext, W
07F5  0083  	MOVWF STATUS
07F6  0EFF  	SWAPF Int1Context, F
07F7  0E7F  	SWAPF Int1Context, W
07F8  0009  	RETFIE
07F9        ; } interrupt function end

	ORG 0x00002007
2007  1F46  	DW 0x1F46
